; ModuleID = 'ConsoleApplication2.cpp'
target datalayout = "e-m:x-p:32:32-i64:64-f80:32-n8:16:32-a:0:32-S32"
target triple = "i686-pc-windows-msvc19.0.22609"

%struct.tree = type { i32, %struct.tree*, %struct.tree*, i32 }
%struct.opr = type { i8, %struct.tree* }
%"class.std::basic_ostream" = type { i32*, i32, %"class.std::basic_ios" }
%"class.std::basic_ios" = type { %"class.std::ios_base", %"class.std::basic_streambuf"*, %"class.std::basic_ostream"*, i8 }
%"class.std::ios_base" = type { i32 (...)**, [4 x i8], i32, i32, i32, i32, i64, i64, %"struct.std::ios_base::_Iosarray"*, %"struct.std::ios_base::_Fnarray"*, %"class.std::locale"* }
%"struct.std::ios_base::_Iosarray" = type { %"struct.std::ios_base::_Iosarray"*, i32, i32, i8* }
%"struct.std::ios_base::_Fnarray" = type { %"struct.std::ios_base::_Fnarray"*, i32, void (i32, %"class.std::ios_base"*, i32)* }
%"class.std::locale" = type { [4 x i8], %"class.std::locale::_Locimp"* }
%"class.std::locale::_Locimp" = type { %"class.std::locale::facet", %"class.std::locale::facet"**, i32, i32, i8, %"class.std::_Yarn" }
%"class.std::locale::facet" = type { %"class.std::_Facet_base", i32 }
%"class.std::_Facet_base" = type { i32 (...)** }
%"class.std::_Yarn" = type { i8*, i8 }
%"class.std::basic_streambuf" = type { i32 (...)**, i8*, i8*, i8**, i8**, i8*, i8*, i8**, i8**, i32, i32, i32*, i32*, %"class.std::locale"* }
%"class.std::basic_istream" = type { i32*, i64, [4 x i8], i32, %"class.std::basic_ios" }
%"class.std::locale::id" = type { i32 }
%rtti.TypeDescriptor26 = type { i8**, i8*, [27 x i8] }
%eh.CatchableType = type { i32, i8*, i32, i32, i32, i32, i8* }
%rtti.TypeDescriptor22 = type { i8**, i8*, [23 x i8] }
%rtti.TypeDescriptor23 = type { i8**, i8*, [24 x i8] }
%rtti.TypeDescriptor19 = type { i8**, i8*, [20 x i8] }
%eh.CatchableTypeArray.5 = type { i32, [5 x %eh.CatchableType*] }
%eh.ThrowInfo = type { i32, i8*, i8*, i8* }
%"struct.std::_Immortalizer" = type { %"union.std::_Align_type" }
%"union.std::_Align_type" = type { i32, [4 x i8] }
%rtti.CompleteObjectLocator = type { i32, i32, i32, i8*, %rtti.ClassHierarchyDescriptor* }
%rtti.ClassHierarchyDescriptor = type { i32, i32, i32, %rtti.BaseClassDescriptor** }
%rtti.BaseClassDescriptor = type { i8*, i32, i32, i32, i32, i32, %rtti.ClassHierarchyDescriptor* }
%rtti.TypeDescriptor34 = type { i8**, i8*, [35 x i8] }
%rtti.TypeDescriptor33 = type { i8**, i8*, [34 x i8] }
%rtti.TypeDescriptor24 = type { i8**, i8*, [25 x i8] }
%rtti.TypeDescriptor18 = type { i8**, i8*, [19 x i8] }
%eh.CatchableTypeArray.2 = type { i32, [2 x %eh.CatchableType*] }
%rtti.TypeDescriptor20 = type { i8**, i8*, [21 x i8] }
%rtti.TypeDescriptor21 = type { i8**, i8*, [22 x i8] }
%rtti.TypeDescriptor25 = type { i8**, i8*, [26 x i8] }
%rtti.TypeDescriptor73 = type { i8**, i8*, [74 x i8] }
%"class.std::basic_string" = type { %"class.std::_String_alloc" }
%"class.std::_String_alloc" = type { %"class.std::_Compressed_pair" }
%"class.std::_Compressed_pair" = type { %"class.std::_String_val" }
%"class.std::_String_val" = type { %"union.std::_String_val<std::_Simple_types<char> >::_Bxty", i32, i32 }
%"union.std::_String_val<std::_Simple_types<char> >::_Bxty" = type { i8*, [12 x i8] }
%"class.std::allocator" = type { i8 }
%"class.std::basic_ostream<char, std::char_traits<char> >::sentry" = type { %"class.std::basic_ostream<char, std::char_traits<char> >::_Sentry_base", i8 }
%"class.std::basic_ostream<char, std::char_traits<char> >::_Sentry_base" = type { %"class.std::basic_ostream"* }
%"struct.std::_Smanip" = type { void (%"class.std::ios_base"*, i64)*, i64 }
%"class.std::num_put" = type { %"class.std::locale::facet" }
%"class.std::ostreambuf_iterator" = type { i8, %"class.std::basic_streambuf"* }
%"class.std::basic_istream<char, std::char_traits<char> >::sentry" = type { %"class.std::basic_istream<char, std::char_traits<char> >::_Sentry_base", i8 }
%"class.std::basic_istream<char, std::char_traits<char> >::_Sentry_base" = type { %"class.std::basic_istream"* }
%"class.std::ctype" = type { %"struct.std::ctype_base", %struct._Ctypevec }
%"struct.std::ctype_base" = type { %"class.std::locale::facet" }
%struct._Ctypevec = type { i32, i16*, i32, i16* }
%"struct.std::_Wrap_alloc" = type { i8 }
%"struct.std::integral_constant" = type { i8 }
%"struct.std::is_function" = type { i8 }
%"struct.std::_One_then_variadic_args_t" = type { i8 }
%"struct.std::_Container_base0" = type { i8 }
%"struct.std::_Nil" = type { i8 }
%"class.std::ios_base::failure" = type { %"class.std::system_error" }
%"class.std::system_error" = type { %"class.std::_System_error" }
%"class.std::_System_error" = type { %"class.std::runtime_error", %"class.std::error_code" }
%"class.std::runtime_error" = type { %"class.std::exception" }
%"class.std::exception" = type { i32 (...)**, %struct.__std_exception_data }
%struct.__std_exception_data = type { i8*, i8 }
%"class.std::error_code" = type { i32, %"class.std::error_category"* }
%"class.std::error_category" = type { i32 (...)**, i32 }
%"class.std::_Iostream_error_category" = type { %"class.std::_Generic_error_category" }
%"class.std::_Generic_error_category" = type { %"class.std::error_category" }
%"class.std::error_condition" = type { i32, %"class.std::error_category"* }
%"class.std::_Lockit" = type { i32 }
%"class.std::bad_cast" = type { %"class.std::exception" }
%"class.std::_Locinfo" = type { %"class.std::_Lockit", %"class.std::_Yarn", %"class.std::_Yarn", %"class.std::_Yarn.0", %"class.std::_Yarn.0", %"class.std::_Yarn", %"class.std::_Yarn" }
%"class.std::_Yarn.0" = type { i16*, i16 }
%"struct.std::_Crt_new_delete" = type { i8 }
%"class.std::_Locbase" = type { i8 }
%"struct.std::iterator" = type { i8 }
%"class.std::numpunct" = type { %"class.std::locale::facet", i8*, i8, i8, i8*, i8* }
%struct.__crt_locale_pointers = type { %struct.__crt_locale_data*, %struct.__crt_multibyte_data* }
%struct.__crt_locale_data = type opaque
%struct.__crt_multibyte_data = type opaque
%struct.lconv = type { i8*, i8*, i8*, i8*, i8*, i8*, i8*, i8*, i8*, i8*, i8, i8, i8, i8, i8, i8, i8, i8, i16*, i16*, i16*, i16*, i16*, i16*, i16*, i16* }
%struct._Cvtvec = type { i32, i32, i32, [32 x i8] }

$"\01??0?$basic_string@DU?$char_traits@D@std@@V?$allocator@D@2@@std@@QAE@XZ" = comdat any

$"\01??Y?$basic_string@DU?$char_traits@D@std@@V?$allocator@D@2@@std@@QAEAAV01@PBD@Z" = comdat any

$"\01?c_str@?$basic_string@DU?$char_traits@D@std@@V?$allocator@D@2@@std@@QBEPBDXZ" = comdat any

$"\01??1?$basic_string@DU?$char_traits@D@std@@V?$allocator@D@2@@std@@QAE@XZ" = comdat any

$"\01??$?6U?$char_traits@D@std@@@std@@YAAAV?$basic_ostream@DU?$char_traits@D@std@@@0@AAV10@D@Z" = comdat any

$"\01??$?6U?$char_traits@D@std@@@std@@YAAAV?$basic_ostream@DU?$char_traits@D@std@@@0@AAV10@PBD@Z" = comdat any

$"\01??6?$basic_ostream@DU?$char_traits@D@std@@@std@@QAEAAV01@P6AAAV01@AAV01@@Z@Z" = comdat any

$"\01??$endl@DU?$char_traits@D@std@@@std@@YAAAV?$basic_ostream@DU?$char_traits@D@std@@@0@AAV10@@Z" = comdat any

$"\01??$?6DU?$char_traits@D@std@@_J@std@@YAAAV?$basic_ostream@DU?$char_traits@D@std@@@0@AAV10@ABU?$_Smanip@_J@0@@Z" = comdat any

$"\01??6?$basic_ostream@DU?$char_traits@D@std@@@std@@QAEAAV01@H@Z" = comdat any

$"\01??$?5DU?$char_traits@D@std@@@std@@YAAAV?$basic_istream@DU?$char_traits@D@std@@@0@AAV10@PAD@Z" = comdat any

$"\01??__Eid@?$num_put@DV?$ostreambuf_iterator@DU?$char_traits@D@std@@@std@@@std@@2V0locale@2@A@YAXXZ" = comdat any

$"\01??0id@locale@std@@QAE@I@Z" = comdat any

$"\01??__Eid@?$numpunct@D@std@@2V0locale@2@A@YAXXZ" = comdat any

$"\01?_Tidy@?$basic_string@DU?$char_traits@D@std@@V?$allocator@D@2@@std@@QAEX_NI@Z" = comdat any

$"\01?_Myres@?$_String_alloc@U?$_String_base_types@DV?$allocator@D@std@@@std@@@std@@QAEAAIXZ" = comdat any

$"\01?_Bx@?$_String_alloc@U?$_String_base_types@DV?$allocator@D@std@@@std@@@std@@QAEAAT_Bxty@?$_String_val@U?$_Simple_types@D@std@@@2@XZ" = comdat any

$"\01?_Getal@?$_String_alloc@U?$_String_base_types@DV?$allocator@D@std@@@std@@@std@@QAEAAU?$_Wrap_alloc@V?$allocator@D@std@@@2@XZ" = comdat any

$"\01??$destroy@PAD@?$_Wrap_alloc@V?$allocator@D@std@@@std@@QAEXPAPAD@Z" = comdat any

$"\01?copy@?$char_traits@D@std@@SAPADPADPBDI@Z" = comdat any

$"\01??$addressof@D@std@@YAPADAAD@Z" = comdat any

$"\01?deallocate@?$_Wrap_alloc@V?$allocator@D@std@@@std@@QAEXPADI@Z" = comdat any

$"\01?_Eos@?$basic_string@DU?$char_traits@D@std@@V?$allocator@D@2@@std@@QAEXI@Z" = comdat any

$"\01?_Get_data@?$_String_alloc@U?$_String_base_types@DV?$allocator@D@std@@@std@@@std@@QAEAAV?$_String_val@U?$_Simple_types@D@std@@@2@XZ" = comdat any

$"\01?_Get_second@?$_Compressed_pair@U?$_Wrap_alloc@V?$allocator@D@std@@@std@@V?$_String_val@U?$_Simple_types@D@std@@@2@$00@std@@QAEAAV?$_String_val@U?$_Simple_types@D@std@@@2@XZ" = comdat any

$"\01?_Get_first@?$_Compressed_pair@U?$_Wrap_alloc@V?$allocator@D@std@@@std@@V?$_String_val@U?$_Simple_types@D@std@@@2@$00@std@@QAEAAU?$_Wrap_alloc@V?$allocator@D@std@@@2@XZ" = comdat any

$"\01??$destroy@PAD@?$allocator_traits@V?$allocator@D@std@@@std@@SAXAAV?$allocator@D@1@PAPAD@Z" = comdat any

$"\01??$destroy@PAD@?$allocator@D@std@@QAEXPAPAD@Z" = comdat any

$"\01??$_Addressof@D@std@@YAPADAADU?$integral_constant@_N$0A@@0@@Z" = comdat any

$"\01?deallocate@?$allocator@D@std@@QAEXPADI@Z" = comdat any

$"\01?_Deallocate@std@@YAXPAXII@Z" = comdat any

$"\01?assign@?$char_traits@D@std@@SAXAADABD@Z" = comdat any

$"\01?_Mysize@?$_String_alloc@U?$_String_base_types@DV?$allocator@D@std@@@std@@@std@@QAEAAIXZ" = comdat any

$"\01?_Myptr@?$_String_alloc@U?$_String_base_types@DV?$allocator@D@std@@@std@@@std@@QAEPADXZ" = comdat any

$"\01?_Myptr@?$_String_val@U?$_Simple_types@D@std@@@std@@QAEPADXZ" = comdat any

$"\01?_Myptr@?$_String_alloc@U?$_String_base_types@DV?$allocator@D@std@@@std@@@std@@QBEPBDXZ" = comdat any

$"\01?_Get_data@?$_String_alloc@U?$_String_base_types@DV?$allocator@D@std@@@std@@@std@@QBEABV?$_String_val@U?$_Simple_types@D@std@@@2@XZ" = comdat any

$"\01?_Myptr@?$_String_val@U?$_Simple_types@D@std@@@std@@QBEPBDXZ" = comdat any

$"\01?_Get_second@?$_Compressed_pair@U?$_Wrap_alloc@V?$allocator@D@std@@@std@@V?$_String_val@U?$_Simple_types@D@std@@@2@$00@std@@QBEABV?$_String_val@U?$_Simple_types@D@std@@@2@XZ" = comdat any

$"\01??0?$allocator@D@std@@QAE@XZ" = comdat any

$"\01??0?$_String_alloc@U?$_String_base_types@DV?$allocator@D@std@@@std@@@std@@QAE@ABV?$allocator@D@1@@Z" = comdat any

$"\01??$?0ABV?$allocator@D@std@@$$V@?$_Compressed_pair@U?$_Wrap_alloc@V?$allocator@D@std@@@std@@V?$_String_val@U?$_Simple_types@D@std@@@2@$00@std@@QAE@U_One_then_variadic_args_t@1@ABV?$allocator@D@1@@Z" = comdat any

$"\01??$forward@ABV?$allocator@D@std@@@std@@YAABV?$allocator@D@0@ABV10@@Z" = comdat any

$"\01??0?$_Wrap_alloc@V?$allocator@D@std@@@std@@QAE@ABV?$allocator@D@1@@Z" = comdat any

$"\01??0?$_String_val@U?$_Simple_types@D@std@@@std@@QAE@XZ" = comdat any

$"\01??0?$allocator@D@std@@QAE@ABV01@@Z" = comdat any

$"\01?append@?$basic_string@DU?$char_traits@D@std@@V?$allocator@D@2@@std@@QAEAAV12@PBD@Z" = comdat any

$"\01?append@?$basic_string@DU?$char_traits@D@std@@V?$allocator@D@2@@std@@QAEAAV12@PBDI@Z" = comdat any

$"\01?length@?$char_traits@D@std@@SAIPBD@Z" = comdat any

$"\01?_Inside@?$basic_string@DU?$char_traits@D@std@@V?$allocator@D@2@@std@@QAE_NPBD@Z" = comdat any

$"\01?append@?$basic_string@DU?$char_traits@D@std@@V?$allocator@D@2@@std@@QAEAAV12@ABV12@II@Z" = comdat any

$"\01?_Xlen@?$basic_string@DU?$char_traits@D@std@@V?$allocator@D@2@@std@@QBEXXZ" = comdat any

$"\01?_Grow@?$basic_string@DU?$char_traits@D@std@@V?$allocator@D@2@@std@@QAE_NI_N@Z" = comdat any

$"\01?size@?$basic_string@DU?$char_traits@D@std@@V?$allocator@D@2@@std@@QBEIXZ" = comdat any

$"\01?_Xran@?$basic_string@DU?$char_traits@D@std@@V?$allocator@D@2@@std@@QBEXXZ" = comdat any

$"\01?_Mysize@?$_String_alloc@U?$_String_base_types@DV?$allocator@D@std@@@std@@@std@@QBEABIXZ" = comdat any

$"\01?max_size@?$basic_string@DU?$char_traits@D@std@@V?$allocator@D@2@@std@@QBEIXZ" = comdat any

$"\01?_Copy@?$basic_string@DU?$char_traits@D@std@@V?$allocator@D@2@@std@@QAEXII@Z" = comdat any

$"\01?_Getal@?$_String_alloc@U?$_String_base_types@DV?$allocator@D@std@@@std@@@std@@QBEABU?$_Wrap_alloc@V?$allocator@D@std@@@2@XZ" = comdat any

$"\01?max_size@?$_Wrap_alloc@V?$allocator@D@std@@@std@@QBEIU_Nil@2@@Z" = comdat any

$"\01?_Get_first@?$_Compressed_pair@U?$_Wrap_alloc@V?$allocator@D@std@@@std@@V?$_String_val@U?$_Simple_types@D@std@@@2@$00@std@@QBEABU?$_Wrap_alloc@V?$allocator@D@std@@@2@XZ" = comdat any

$"\01?max_size@?$allocator_traits@V?$allocator@D@std@@@std@@SAIABV?$allocator@D@2@@Z" = comdat any

$"\01?max_size@?$allocator@D@std@@QBEIXZ" = comdat any

$"\01?allocate@?$_Wrap_alloc@V?$allocator@D@std@@@std@@QAEPADI@Z" = comdat any

$"\01??$construct@PADAAPAD@?$_Wrap_alloc@V?$allocator@D@std@@@std@@QAEXPAPADAAPAD@Z" = comdat any

$"\01?allocate@?$allocator@D@std@@QAEPADI@Z" = comdat any

$"\01?_Allocate@std@@YAPAXII_N@Z" = comdat any

$"\01??$construct@PADAAPAD@?$allocator_traits@V?$allocator@D@std@@@std@@SAXAAV?$allocator@D@1@PAPADAAPAD@Z" = comdat any

$"\01??$forward@AAPAD@std@@YAAAPADAAPAD@Z" = comdat any

$"\01??$construct@PADAAPAD@?$allocator@D@std@@QAEXPAPADAAPAD@Z" = comdat any

$"\01?width@ios_base@std@@QBE_JXZ" = comdat any

$"\01??0sentry@?$basic_ostream@DU?$char_traits@D@std@@@std@@QAE@AAV12@@Z" = comdat any

$"\01??Bsentry@?$basic_ostream@DU?$char_traits@D@std@@@std@@QBE_NXZ" = comdat any

$"\01?flags@ios_base@std@@QBEHXZ" = comdat any

$"\01?eq_int_type@?$char_traits@D@std@@SA_NABH0@Z" = comdat any

$"\01?rdbuf@?$basic_ios@DU?$char_traits@D@std@@@std@@QBEPAV?$basic_streambuf@DU?$char_traits@D@std@@@2@XZ" = comdat any

$"\01?sputc@?$basic_streambuf@DU?$char_traits@D@std@@@std@@QAEHD@Z" = comdat any

$"\01?fill@?$basic_ios@DU?$char_traits@D@std@@@std@@QBEDXZ" = comdat any

$"\01?eof@?$char_traits@D@std@@SAHXZ" = comdat any

$"\01?sputn@?$basic_streambuf@DU?$char_traits@D@std@@@std@@QAE_JPBD_J@Z" = comdat any

$"\01?width@ios_base@std@@QAE_J_J@Z" = comdat any

$"\01?setstate@?$basic_ios@DU?$char_traits@D@std@@@std@@QAEXH_N@Z" = comdat any

$"\01??1sentry@?$basic_ostream@DU?$char_traits@D@std@@@std@@QAE@XZ" = comdat any

$"\01??0_Sentry_base@?$basic_ostream@DU?$char_traits@D@std@@@std@@QAE@AAV12@@Z" = comdat any

$"\01?good@ios_base@std@@QBE_NXZ" = comdat any

$"\01?tie@?$basic_ios@DU?$char_traits@D@std@@@std@@QBEPAV?$basic_ostream@DU?$char_traits@D@std@@@2@XZ" = comdat any

$"\01?flush@?$basic_ostream@DU?$char_traits@D@std@@@std@@QAEAAV12@XZ" = comdat any

$"\01?rdstate@ios_base@std@@QBEHXZ" = comdat any

$"\01?pubsync@?$basic_streambuf@DU?$char_traits@D@std@@@std@@QAEHXZ" = comdat any

$"\01?_Pnavail@?$basic_streambuf@DU?$char_traits@D@std@@@std@@IBE_JXZ" = comdat any

$"\01?to_int_type@?$char_traits@D@std@@SAHABD@Z" = comdat any

$"\01?_Pninc@?$basic_streambuf@DU?$char_traits@D@std@@@std@@IAEPADXZ" = comdat any

$"\01?clear@?$basic_ios@DU?$char_traits@D@std@@@std@@QAEXH_N@Z" = comdat any

$"\01?clear@ios_base@std@@QAEXH_N@Z" = comdat any

$"\01?make_error_code@std@@YA?AVerror_code@1@W4io_errc@1@@Z" = comdat any

$"\01??0failure@ios_base@std@@QAE@PBDABVerror_code@2@@Z" = comdat any

$"\01??0failure@ios_base@std@@QAE@ABV012@@Z" = comdat any

$"\01??0system_error@std@@QAE@ABV01@@Z" = comdat any

$"\01??0_System_error@std@@QAE@ABV01@@Z" = comdat any

$"\01??0runtime_error@std@@QAE@ABV01@@Z" = comdat any

$"\01??0exception@std@@QAE@ABV01@@Z" = comdat any

$"\01??1failure@ios_base@std@@UAE@XZ" = comdat any

$"\01?iostream_category@std@@YAABVerror_category@1@XZ" = comdat any

$"\01??0error_code@std@@QAE@HABVerror_category@1@@Z" = comdat any

$"\01??$_Immortalize@V_Iostream_error_category@std@@@std@@YAAAV_Iostream_error_category@0@XZ" = comdat any

$"\01??0?$_Immortalizer@V_Iostream_error_category@std@@@std@@QAE@XZ" = comdat any

$"\01??1?$_Immortalizer@V_Iostream_error_category@std@@@std@@QAE@XZ" = comdat any

$"\01??0_Iostream_error_category@std@@QAE@XZ" = comdat any

$"\01??0_Generic_error_category@std@@QAE@XZ" = comdat any

$"\01??_G_Iostream_error_category@std@@UAEPAXI@Z" = comdat any

$"\01?name@_Iostream_error_category@std@@UBEPBDXZ" = comdat any

$"\01?message@_Iostream_error_category@std@@UBE?AV?$basic_string@DU?$char_traits@D@std@@V?$allocator@D@2@@2@H@Z" = comdat any

$"\01?default_error_condition@error_category@std@@UBE?AVerror_condition@2@H@Z" = comdat any

$"\01?equivalent@error_category@std@@UBE_NABVerror_code@2@H@Z" = comdat any

$"\01?equivalent@error_category@std@@UBE_NHABVerror_condition@2@@Z" = comdat any

$"\01??0error_category@std@@QAE@XZ" = comdat any

$"\01??_G_Generic_error_category@std@@UAEPAXI@Z" = comdat any

$"\01?name@_Generic_error_category@std@@UBEPBDXZ" = comdat any

$"\01?message@_Generic_error_category@std@@UBE?AV?$basic_string@DU?$char_traits@D@std@@V?$allocator@D@2@@2@H@Z" = comdat any

$"\01??_Gerror_category@std@@UAEPAXI@Z" = comdat any

$"\01??1error_category@std@@UAE@XZ" = comdat any

$"\01??1_Generic_error_category@std@@UAE@XZ" = comdat any

$"\01??0?$basic_string@DU?$char_traits@D@std@@V?$allocator@D@2@@std@@QAE@PBD@Z" = comdat any

$"\01?assign@?$basic_string@DU?$char_traits@D@std@@V?$allocator@D@2@@std@@QAEAAV12@PBD@Z" = comdat any

$"\01?assign@?$basic_string@DU?$char_traits@D@std@@V?$allocator@D@2@@std@@QAEAAV12@PBDI@Z" = comdat any

$"\01?assign@?$basic_string@DU?$char_traits@D@std@@V?$allocator@D@2@@std@@QAEAAV12@ABV12@II@Z" = comdat any

$"\01?erase@?$basic_string@DU?$char_traits@D@std@@V?$allocator@D@2@@std@@QAEAAV12@I@Z" = comdat any

$"\01?erase@?$basic_string@DU?$char_traits@D@std@@V?$allocator@D@2@@std@@QAEAAV12@II@Z" = comdat any

$"\01?move@?$char_traits@D@std@@SAPADPADPBDI@Z" = comdat any

$"\01??1_Iostream_error_category@std@@UAE@XZ" = comdat any

$"\01??0error_condition@std@@QAE@HABVerror_category@1@@Z" = comdat any

$"\01??8error_category@std@@QBE_NABV01@@Z" = comdat any

$"\01?category@error_code@std@@QBEABVerror_category@2@XZ" = comdat any

$"\01?value@error_code@std@@QBEHXZ" = comdat any

$"\01??8std@@YA_NABVerror_condition@0@0@Z" = comdat any

$"\01?category@error_condition@std@@QBEABVerror_category@2@XZ" = comdat any

$"\01?value@error_condition@std@@QBEHXZ" = comdat any

$"\01??0system_error@std@@QAE@Verror_code@1@PBD@Z" = comdat any

$"\01??_Gfailure@ios_base@std@@UAEPAXI@Z" = comdat any

$"\01?what@exception@std@@UBEPBDXZ" = comdat any

$"\01??0_System_error@std@@IAE@Verror_code@1@ABV?$basic_string@DU?$char_traits@D@std@@V?$allocator@D@2@@1@@Z" = comdat any

$"\01??_Gsystem_error@std@@UAEPAXI@Z" = comdat any

$"\01?_Makestr@_System_error@std@@CA?AV?$basic_string@DU?$char_traits@D@std@@V?$allocator@D@2@@2@Verror_code@2@V32@@Z" = comdat any

$"\01??0?$basic_string@DU?$char_traits@D@std@@V?$allocator@D@2@@std@@QAE@ABV01@@Z" = comdat any

$"\01??0runtime_error@std@@QAE@ABV?$basic_string@DU?$char_traits@D@std@@V?$allocator@D@2@@1@@Z" = comdat any

$"\01??_G_System_error@std@@UAEPAXI@Z" = comdat any

$"\01?empty@?$basic_string@DU?$char_traits@D@std@@V?$allocator@D@2@@std@@QBE_NXZ" = comdat any

$"\01?append@?$basic_string@DU?$char_traits@D@std@@V?$allocator@D@2@@std@@QAEAAV12@ABV12@@Z" = comdat any

$"\01?message@error_code@std@@QBE?AV?$basic_string@DU?$char_traits@D@std@@V?$allocator@D@2@@2@XZ" = comdat any

$"\01??0?$basic_string@DU?$char_traits@D@std@@V?$allocator@D@2@@std@@QAE@$$QAV01@@Z" = comdat any

$"\01??$move@AAU?$_Wrap_alloc@V?$allocator@D@std@@@std@@@std@@YA$$QAU?$_Wrap_alloc@V?$allocator@D@std@@@0@AAU10@@Z" = comdat any

$"\01??0?$_String_alloc@U?$_String_base_types@DV?$allocator@D@std@@@std@@@std@@QAE@$$QAV?$allocator@D@1@@Z" = comdat any

$"\01?_Assign_rv@?$basic_string@DU?$char_traits@D@std@@V?$allocator@D@2@@std@@QAEX$$QAV12@@Z" = comdat any

$"\01??$forward@V?$basic_string@DU?$char_traits@D@std@@V?$allocator@D@2@@std@@@std@@YA$$QAV?$basic_string@DU?$char_traits@D@std@@V?$allocator@D@2@@0@AAV10@@Z" = comdat any

$"\01??$move@AAV?$allocator@D@std@@@std@@YA$$QAV?$allocator@D@0@AAV10@@Z" = comdat any

$"\01??$?0V?$allocator@D@std@@$$V@?$_Compressed_pair@U?$_Wrap_alloc@V?$allocator@D@std@@@std@@V?$_String_val@U?$_Simple_types@D@std@@@2@$00@std@@QAE@U_One_then_variadic_args_t@1@$$QAV?$allocator@D@1@@Z" = comdat any

$"\01??$forward@V?$allocator@D@std@@@std@@YA$$QAV?$allocator@D@0@AAV10@@Z" = comdat any

$"\01?select_on_container_copy_construction@?$_Wrap_alloc@V?$allocator@D@std@@@std@@QBE?AU12@U_Nil@2@@Z" = comdat any

$"\01?select_on_container_copy_construction@?$allocator_traits@V?$allocator@D@std@@@std@@SA?AV?$allocator@D@2@ABV32@@Z" = comdat any

$"\01??0exception@std@@QAE@QBD@Z" = comdat any

$"\01??_Gruntime_error@std@@UAEPAXI@Z" = comdat any

$"\01??_Gexception@std@@UAEPAXI@Z" = comdat any

$"\01??1exception@std@@UAE@XZ" = comdat any

$"\01??1runtime_error@std@@UAE@XZ" = comdat any

$"\01??1_System_error@std@@UAE@XZ" = comdat any

$"\01??1system_error@std@@UAE@XZ" = comdat any

$"\01?_Osfx@?$basic_ostream@DU?$char_traits@D@std@@@std@@QAEXXZ" = comdat any

$"\01??1_Sentry_base@?$basic_ostream@DU?$char_traits@D@std@@@std@@QAE@XZ" = comdat any

$"\01?put@?$basic_ostream@DU?$char_traits@D@std@@@std@@QAEAAV12@D@Z" = comdat any

$"\01?widen@?$basic_ios@DU?$char_traits@D@std@@@std@@QBEDD@Z" = comdat any

$"\01??$use_facet@V?$ctype@D@std@@@std@@YAABV?$ctype@D@0@ABVlocale@0@@Z" = comdat any

$"\01?getloc@ios_base@std@@QBE?AVlocale@2@XZ" = comdat any

$"\01??1locale@std@@QAE@XZ" = comdat any

$"\01?widen@?$ctype@D@std@@QBEDD@Z" = comdat any

$"\01??Bid@locale@std@@QAEIXZ" = comdat any

$"\01?_Getfacet@locale@std@@QBEPBVfacet@12@I@Z" = comdat any

$"\01?_Getcat@?$ctype@D@std@@SAIPAPBVfacet@locale@2@PBV42@@Z" = comdat any

$"\01??0bad_cast@std@@QAE@XZ" = comdat any

$"\01??0bad_cast@std@@QAE@ABV01@@Z" = comdat any

$"\01??1bad_cast@std@@UAE@XZ" = comdat any

$"\01?c_str@locale@std@@QBEPBDXZ" = comdat any

$"\01??0_Locinfo@std@@QAE@PBD@Z" = comdat any

$"\01??0?$ctype@D@std@@QAE@ABV_Locinfo@1@I@Z" = comdat any

$"\01??1_Locinfo@std@@QAE@XZ" = comdat any

$"\01?c_str@?$_Yarn@D@std@@QBEPBDXZ" = comdat any

$"\01??0?$_Yarn@D@std@@QAE@XZ" = comdat any

$"\01??0?$_Yarn@_W@std@@QAE@XZ" = comdat any

$"\01??0runtime_error@std@@QAE@PBD@Z" = comdat any

$"\01??0ctype_base@std@@QAE@I@Z" = comdat any

$"\01?_Init@?$ctype@D@std@@IAEXABV_Locinfo@2@@Z" = comdat any

$"\01??_G?$ctype@D@std@@MAEPAXI@Z" = comdat any

$"\01?_Incref@facet@locale@std@@UAEXXZ" = comdat any

$"\01?_Decref@facet@locale@std@@UAEPAV_Facet_base@3@XZ" = comdat any

$"\01?do_tolower@?$ctype@D@std@@MBEPBDPADPBD@Z" = comdat any

$"\01?do_tolower@?$ctype@D@std@@MBEDD@Z" = comdat any

$"\01?do_toupper@?$ctype@D@std@@MBEPBDPADPBD@Z" = comdat any

$"\01?do_toupper@?$ctype@D@std@@MBEDD@Z" = comdat any

$"\01?do_widen@?$ctype@D@std@@MBEPBDPBD0PAD@Z" = comdat any

$"\01?do_widen@?$ctype@D@std@@MBEDD@Z" = comdat any

$"\01?do_narrow@?$ctype@D@std@@MBEPBDPBD0DPAD@Z" = comdat any

$"\01?do_narrow@?$ctype@D@std@@MBEDDD@Z" = comdat any

$"\01??0facet@locale@std@@IAE@I@Z" = comdat any

$"\01??_Gctype_base@std@@UAEPAXI@Z" = comdat any

$"\01??0_Facet_base@std@@QAE@XZ" = comdat any

$"\01?_Init_atomic_counter@std@@YAXAAKK@Z" = comdat any

$"\01??_Gfacet@locale@std@@MAEPAXI@Z" = comdat any

$"\01??_G_Facet_base@std@@UAEPAXI@Z" = comdat any

$"\01??1_Facet_base@std@@UAE@XZ" = comdat any

$"\01??1facet@locale@std@@MAE@XZ" = comdat any

$"\01??1ctype_base@std@@UAE@XZ" = comdat any

$"\01?_Getctype@_Locinfo@std@@QBE?AU_Ctypevec@@XZ" = comdat any

$"\01??1?$ctype@D@std@@MAE@XZ" = comdat any

$"\01?_Tidy@?$ctype@D@std@@IAEXXZ" = comdat any

$"\01??1?$_Yarn@D@std@@QAE@XZ" = comdat any

$"\01??1?$_Yarn@_W@std@@QAE@XZ" = comdat any

$"\01?_Tidy@?$_Yarn@D@std@@AAEXXZ" = comdat any

$"\01?_Tidy@?$_Yarn@_W@std@@AAEXXZ" = comdat any

$"\01??0exception@std@@QAE@QBDH@Z" = comdat any

$"\01??_Gbad_cast@std@@UAEPAXI@Z" = comdat any

$"\01??0locale@std@@QAE@ABV01@@Z" = comdat any

$"\01??$use_facet@V?$num_put@DV?$ostreambuf_iterator@DU?$char_traits@D@std@@@std@@@std@@@std@@YAABV?$num_put@DV?$ostreambuf_iterator@DU?$char_traits@D@std@@@std@@@0@ABVlocale@0@@Z" = comdat any

$"\01?put@?$num_put@DV?$ostreambuf_iterator@DU?$char_traits@D@std@@@std@@@std@@QBE?AV?$ostreambuf_iterator@DU?$char_traits@D@std@@@2@V32@AAVios_base@2@DJ@Z" = comdat any

$"\01??0?$ostreambuf_iterator@DU?$char_traits@D@std@@@std@@QAE@PAV?$basic_streambuf@DU?$char_traits@D@std@@@1@@Z" = comdat any

$"\01?failed@?$ostreambuf_iterator@DU?$char_traits@D@std@@@std@@QBE_NXZ" = comdat any

$"\01?_Getcat@?$num_put@DV?$ostreambuf_iterator@DU?$char_traits@D@std@@@std@@@std@@SAIPAPBVfacet@locale@2@PBV42@@Z" = comdat any

$"\01??0?$num_put@DV?$ostreambuf_iterator@DU?$char_traits@D@std@@@std@@@std@@QAE@ABV_Locinfo@1@I@Z" = comdat any

$"\01?_Init@?$num_put@DV?$ostreambuf_iterator@DU?$char_traits@D@std@@@std@@@std@@IAEXABV_Locinfo@2@@Z" = comdat any

$"\01??_G?$num_put@DV?$ostreambuf_iterator@DU?$char_traits@D@std@@@std@@@std@@MAEPAXI@Z" = comdat any

$"\01?do_put@?$num_put@DV?$ostreambuf_iterator@DU?$char_traits@D@std@@@std@@@std@@MBE?AV?$ostreambuf_iterator@DU?$char_traits@D@std@@@2@V32@AAVios_base@2@DPBX@Z" = comdat any

$"\01?do_put@?$num_put@DV?$ostreambuf_iterator@DU?$char_traits@D@std@@@std@@@std@@MBE?AV?$ostreambuf_iterator@DU?$char_traits@D@std@@@2@V32@AAVios_base@2@DO@Z" = comdat any

$"\01?do_put@?$num_put@DV?$ostreambuf_iterator@DU?$char_traits@D@std@@@std@@@std@@MBE?AV?$ostreambuf_iterator@DU?$char_traits@D@std@@@2@V32@AAVios_base@2@DN@Z" = comdat any

$"\01?do_put@?$num_put@DV?$ostreambuf_iterator@DU?$char_traits@D@std@@@std@@@std@@MBE?AV?$ostreambuf_iterator@DU?$char_traits@D@std@@@2@V32@AAVios_base@2@D_K@Z" = comdat any

$"\01?do_put@?$num_put@DV?$ostreambuf_iterator@DU?$char_traits@D@std@@@std@@@std@@MBE?AV?$ostreambuf_iterator@DU?$char_traits@D@std@@@2@V32@AAVios_base@2@D_J@Z" = comdat any

$"\01?do_put@?$num_put@DV?$ostreambuf_iterator@DU?$char_traits@D@std@@@std@@@std@@MBE?AV?$ostreambuf_iterator@DU?$char_traits@D@std@@@2@V32@AAVios_base@2@DK@Z" = comdat any

$"\01?do_put@?$num_put@DV?$ostreambuf_iterator@DU?$char_traits@D@std@@@std@@@std@@MBE?AV?$ostreambuf_iterator@DU?$char_traits@D@std@@@2@V32@AAVios_base@2@DJ@Z" = comdat any

$"\01?do_put@?$num_put@DV?$ostreambuf_iterator@DU?$char_traits@D@std@@@std@@@std@@MBE?AV?$ostreambuf_iterator@DU?$char_traits@D@std@@@2@V32@AAVios_base@2@D_N@Z" = comdat any

$"\01??1?$num_put@DV?$ostreambuf_iterator@DU?$char_traits@D@std@@@std@@@std@@MAE@XZ" = comdat any

$"\01?_Iput@?$num_put@DV?$ostreambuf_iterator@DU?$char_traits@D@std@@@std@@@std@@ABA?AV?$ostreambuf_iterator@DU?$char_traits@D@std@@@2@V32@AAVios_base@2@DPADI@Z" = comdat any

$sprintf_s = comdat any

$"\01??0?$basic_string@DU?$char_traits@D@std@@V?$allocator@D@2@@std@@QAE@ID@Z" = comdat any

$"\01?widen@?$ctype@D@std@@QBEPBDPBD0PAD@Z" = comdat any

$"\01??A?$basic_string@DU?$char_traits@D@std@@V?$allocator@D@2@@std@@QAEAADI@Z" = comdat any

$"\01??$use_facet@V?$numpunct@D@std@@@std@@YAABV?$numpunct@D@0@ABVlocale@0@@Z" = comdat any

$"\01?grouping@?$numpunct@D@std@@QBE?AV?$basic_string@DU?$char_traits@D@std@@V?$allocator@D@2@@2@XZ" = comdat any

$"\01??A?$basic_string@DU?$char_traits@D@std@@V?$allocator@D@2@@std@@QBEABDI@Z" = comdat any

$"\01?thousands_sep@?$numpunct@D@std@@QBEDXZ" = comdat any

$"\01?insert@?$basic_string@DU?$char_traits@D@std@@V?$allocator@D@2@@std@@QAEAAV12@IID@Z" = comdat any

$"\01?_Rep@?$num_put@DV?$ostreambuf_iterator@DU?$char_traits@D@std@@@std@@@std@@ABA?AV?$ostreambuf_iterator@DU?$char_traits@D@std@@@2@V32@DI@Z" = comdat any

$"\01?_Put@?$num_put@DV?$ostreambuf_iterator@DU?$char_traits@D@std@@@std@@@std@@ABA?AV?$ostreambuf_iterator@DU?$char_traits@D@std@@@2@V32@PBDI@Z" = comdat any

$"\01?assign@?$basic_string@DU?$char_traits@D@std@@V?$allocator@D@2@@std@@QAEAAV12@ID@Z" = comdat any

$"\01?_Chassign@?$basic_string@DU?$char_traits@D@std@@V?$allocator@D@2@@std@@QAEXIID@Z" = comdat any

$"\01?assign@?$char_traits@D@std@@SAPADPADID@Z" = comdat any

$"\01?_Getcat@?$numpunct@D@std@@SAIPAPBVfacet@locale@2@PBV42@@Z" = comdat any

$"\01??0?$numpunct@D@std@@QAE@ABV_Locinfo@1@I_N@Z" = comdat any

$"\01?_Init@?$numpunct@D@std@@IAEXABV_Locinfo@2@_N@Z" = comdat any

$"\01??_G?$numpunct@D@std@@MAEPAXI@Z" = comdat any

$"\01?do_decimal_point@?$numpunct@D@std@@MBEDXZ" = comdat any

$"\01?do_thousands_sep@?$numpunct@D@std@@MBEDXZ" = comdat any

$"\01?do_grouping@?$numpunct@D@std@@MBE?AV?$basic_string@DU?$char_traits@D@std@@V?$allocator@D@2@@2@XZ" = comdat any

$"\01?do_falsename@?$numpunct@D@std@@MBE?AV?$basic_string@DU?$char_traits@D@std@@V?$allocator@D@2@@2@XZ" = comdat any

$"\01?do_truename@?$numpunct@D@std@@MBE?AV?$basic_string@DU?$char_traits@D@std@@V?$allocator@D@2@@2@XZ" = comdat any

$"\01?_Getlconv@_Locinfo@std@@QBEPBUlconv@@XZ" = comdat any

$"\01?_Getcvt@_Locinfo@std@@QBE?AU_Cvtvec@@XZ" = comdat any

$"\01??$_Maklocstr@D@std@@YAPADPBDPADABU_Cvtvec@@@Z" = comdat any

$"\01?_Getfalse@_Locinfo@std@@QBEPBDXZ" = comdat any

$"\01?_Gettrue@_Locinfo@std@@QBEPBDXZ" = comdat any

$"\01??$_Maklocchr@D@std@@YADDPADABU_Cvtvec@@@Z" = comdat any

$"\01??$_Getvals@D@?$numpunct@D@std@@IAEXDPBUlconv@@U_Cvtvec@@@Z" = comdat any

$"\01??1?$numpunct@D@std@@MAE@XZ" = comdat any

$"\01?_Tidy@?$numpunct@D@std@@AAEXXZ" = comdat any

$"\01??D?$ostreambuf_iterator@DU?$char_traits@D@std@@@std@@QAEAAV01@XZ" = comdat any

$"\01??4?$ostreambuf_iterator@DU?$char_traits@D@std@@@std@@QAEAAV01@D@Z" = comdat any

$"\01??E?$ostreambuf_iterator@DU?$char_traits@D@std@@@std@@QAEAAV01@XZ" = comdat any

$_vsprintf_s_l = comdat any

$__local_stdio_printf_options = comdat any

$"\01?precision@ios_base@std@@QBE_JXZ" = comdat any

$fabsl = comdat any

$frexpl = comdat any

$"\01?resize@?$basic_string@DU?$char_traits@D@std@@V?$allocator@D@2@@std@@QAEXI@Z" = comdat any

$"\01?_Ffmt@?$num_put@DV?$ostreambuf_iterator@DU?$char_traits@D@std@@@std@@@std@@ABAPADPADDH@Z" = comdat any

$"\01?_Fput@?$num_put@DV?$ostreambuf_iterator@DU?$char_traits@D@std@@@std@@@std@@ABA?AV?$ostreambuf_iterator@DU?$char_traits@D@std@@@2@V32@AAVios_base@2@DPBDI@Z" = comdat any

$"\01?resize@?$basic_string@DU?$char_traits@D@std@@V?$allocator@D@2@@std@@QAEXID@Z" = comdat any

$"\01?append@?$basic_string@DU?$char_traits@D@std@@V?$allocator@D@2@@std@@QAEAAV12@ID@Z" = comdat any

$"\01?decimal_point@?$numpunct@D@std@@QBEDXZ" = comdat any

$"\01?_Ifmt@?$num_put@DV?$ostreambuf_iterator@DU?$char_traits@D@std@@@std@@@std@@ABAPADPADPBDH@Z" = comdat any

$"\01?assign@?$basic_string@DU?$char_traits@D@std@@V?$allocator@D@2@@std@@QAEAAV12@$$QAV12@@Z" = comdat any

$"\01?truename@?$numpunct@D@std@@QBE?AV?$basic_string@DU?$char_traits@D@std@@V?$allocator@D@2@@2@XZ" = comdat any

$"\01?falsename@?$numpunct@D@std@@QBE?AV?$basic_string@DU?$char_traits@D@std@@V?$allocator@D@2@@2@XZ" = comdat any

$"\01??$?9DD@std@@YA_NABV?$allocator@D@0@0@Z" = comdat any

$"\01?get_allocator@?$basic_string@DU?$char_traits@D@std@@V?$allocator@D@2@@std@@QBE?AV?$allocator@D@2@XZ" = comdat any

$"\01??4?$basic_string@DU?$char_traits@D@std@@V?$allocator@D@2@@std@@QAEAAV01@ABV01@@Z" = comdat any

$"\01??$?9V?$allocator@D@std@@V01@@std@@YA_NABU?$_Wrap_alloc@V?$allocator@D@std@@@0@0@Z" = comdat any

$"\01?_Copy_alloc@?$_String_alloc@U?$_String_base_types@DV?$allocator@D@std@@@std@@@std@@QAEXABU?$_Wrap_alloc@V?$allocator@D@std@@@2@@Z" = comdat any

$"\01?assign@?$basic_string@DU?$char_traits@D@std@@V?$allocator@D@2@@std@@QAEAAV12@ABV12@@Z" = comdat any

$"\01??$?8V?$allocator@D@std@@V01@@std@@YA_NABU?$_Wrap_alloc@V?$allocator@D@std@@@0@0@Z" = comdat any

$"\01??$?8DD@std@@YA_NABV?$allocator@D@0@0@Z" = comdat any

$"\01??$_Pocca@U?$_Wrap_alloc@V?$allocator@D@std@@@std@@@std@@YAXAAU?$_Wrap_alloc@V?$allocator@D@std@@@0@ABU10@@Z" = comdat any

$"\01??$_Pocca@U?$_Wrap_alloc@V?$allocator@D@std@@@std@@@std@@YAXAAU?$_Wrap_alloc@V?$allocator@D@std@@@0@ABU10@U?$integral_constant@_N$0A@@0@@Z" = comdat any

$"\01??0sentry@?$basic_istream@DU?$char_traits@D@std@@@std@@QAE@AAV12@_N@Z" = comdat any

$"\01??Bsentry@?$basic_istream@DU?$char_traits@D@std@@@std@@QBE_NXZ" = comdat any

$"\01?max@?$numeric_limits@_J@std@@SA_JXZ" = comdat any

$"\01?sgetc@?$basic_streambuf@DU?$char_traits@D@std@@@std@@QAEHXZ" = comdat any

$"\01?is@?$ctype@D@std@@QBE_NFD@Z" = comdat any

$"\01?to_char_type@?$char_traits@D@std@@SADABH@Z" = comdat any

$"\01?snextc@?$basic_streambuf@DU?$char_traits@D@std@@@std@@QAEHXZ" = comdat any

$"\01??1sentry@?$basic_istream@DU?$char_traits@D@std@@@std@@QAE@XZ" = comdat any

$"\01??0_Sentry_base@?$basic_istream@DU?$char_traits@D@std@@@std@@QAE@AAV12@@Z" = comdat any

$"\01?_Ipfx@?$basic_istream@DU?$char_traits@D@std@@@std@@QAE_N_N@Z" = comdat any

$"\01?_Gnavail@?$basic_streambuf@DU?$char_traits@D@std@@@std@@IBE_JXZ" = comdat any

$"\01?gptr@?$basic_streambuf@DU?$char_traits@D@std@@@std@@IBEPADXZ" = comdat any

$"\01?_Gnpreinc@?$basic_streambuf@DU?$char_traits@D@std@@@std@@IAEPADXZ" = comdat any

$"\01?sbumpc@?$basic_streambuf@DU?$char_traits@D@std@@@std@@QAEHXZ" = comdat any

$"\01?_Gninc@?$basic_streambuf@DU?$char_traits@D@std@@@std@@IAEPADXZ" = comdat any

$"\01??1_Sentry_base@?$basic_istream@DU?$char_traits@D@std@@@std@@QAE@XZ" = comdat any

$"\01??_C@_0BC@EAOCLDIP@Invalid?5operator?5?$AA@" = comdat any

$"\01??_C@_0BL@IJKILDAH@?6Expression?5is?5Invalid?4?4?4?6?$AA@" = comdat any

$"\01??_C@_0BK@DIFINCHN@?6Expression?5is?5Invalid?$CB?5?6?$AA@" = comdat any

$"\01??_C@_0DH@KHFCLIPP@?5The?5AST?5for?5given?5expression?5?$CIf@" = comdat any

$"\01??_C@_01CLKCMJKC@?5?$AA@" = comdat any

$"\01??_C@_0BD@EEMKNDLA@ENTER?5EXPRESSION?3?5?$AA@" = comdat any

$"\01?id@?$num_put@DV?$ostreambuf_iterator@DU?$char_traits@D@std@@@std@@@std@@2V0locale@2@A" = comdat any

$"\01?id@?$numpunct@D@std@@2V0locale@2@A" = comdat any

$"\01??_C@_0BI@CFPLBAOH@invalid?5string?5position?$AA@" = comdat any

$"\01??_C@_0BA@JFNIOLAK@string?5too?5long?$AA@" = comdat any

$"\01??_C@_0BF@PHHKMMFD@ios_base?3?3badbit?5set?$AA@" = comdat any

$"\01??_R0?AVfailure@ios_base@std@@@8" = comdat any

$"_CT??_R0?AVfailure@ios_base@std@@@8??0failure@ios_base@std@@QAE@ABV012@@Z20" = comdat any

$"\01??_R0?AVsystem_error@std@@@8" = comdat any

$"_CT??_R0?AVsystem_error@std@@@8??0system_error@std@@QAE@ABV01@@Z20" = comdat any

$"\01??_R0?AV_System_error@std@@@8" = comdat any

$"_CT??_R0?AV_System_error@std@@@8??0_System_error@std@@QAE@ABV01@@Z20" = comdat any

$"\01??_R0?AVruntime_error@std@@@8" = comdat any

$"_CT??_R0?AVruntime_error@std@@@8??0runtime_error@std@@QAE@ABV01@@Z12" = comdat any

$"\01??_R0?AVexception@std@@@8" = comdat any

$"_CT??_R0?AVexception@std@@@8??0exception@std@@QAE@ABV01@@Z12" = comdat any

$"_CTA5?AVfailure@ios_base@std@@" = comdat any

$"_TI5?AVfailure@ios_base@std@@" = comdat any

$"\01??_C@_0BG@FMKFHCIL@ios_base?3?3failbit?5set?$AA@" = comdat any

$"\01??_C@_0BF@OOHOMBOF@ios_base?3?3eofbit?5set?$AA@" = comdat any

$"\01?_Static@?1???$_Immortalize@V_Iostream_error_category@std@@@std@@YAAAV_Iostream_error_category@1@XZ@4U?$_Immortalizer@V_Iostream_error_category@std@@@1@A" = comdat any

$"\01?$TSS0@?1???$_Immortalize@V_Iostream_error_category@std@@@std@@YAAAV_Iostream_error_category@0@XZ" = comdat any

$"\01??_7_Iostream_error_category@std@@6B@" = comdat largest

$"\01??_R4_Iostream_error_category@std@@6B@" = comdat any

$"\01??_R0?AV_Iostream_error_category@std@@@8" = comdat any

$"\01??_R3_Iostream_error_category@std@@8" = comdat any

$"\01??_R2_Iostream_error_category@std@@8" = comdat any

$"\01??_R1A@?0A@EA@_Iostream_error_category@std@@8" = comdat any

$"\01??_R1A@?0A@EA@_Generic_error_category@std@@8" = comdat any

$"\01??_R0?AV_Generic_error_category@std@@@8" = comdat any

$"\01??_R3_Generic_error_category@std@@8" = comdat any

$"\01??_R2_Generic_error_category@std@@8" = comdat any

$"\01??_R1A@?0A@EA@error_category@std@@8" = comdat any

$"\01??_R0?AVerror_category@std@@@8" = comdat any

$"\01??_R3error_category@std@@8" = comdat any

$"\01??_R2error_category@std@@8" = comdat any

$"\01??_7_Generic_error_category@std@@6B@" = comdat largest

$"\01??_R4_Generic_error_category@std@@6B@" = comdat any

$"\01??_7error_category@std@@6B@" = comdat largest

$"\01??_R4error_category@std@@6B@" = comdat any

$"\01??_C@_07DCLBNMLN@generic?$AA@" = comdat any

$"\01??_C@_08LLGCOLLL@iostream?$AA@" = comdat any

$"\01??_C@_0BG@PADBLCHM@iostream?5stream?5error?$AA@" = comdat any

$"\01??_7failure@ios_base@std@@6B@" = comdat largest

$"\01??_R4failure@ios_base@std@@6B@" = comdat any

$"\01??_R3failure@ios_base@std@@8" = comdat any

$"\01??_R2failure@ios_base@std@@8" = comdat any

$"\01??_R1A@?0A@EA@failure@ios_base@std@@8" = comdat any

$"\01??_R1A@?0A@EA@system_error@std@@8" = comdat any

$"\01??_R3system_error@std@@8" = comdat any

$"\01??_R2system_error@std@@8" = comdat any

$"\01??_R1A@?0A@EA@_System_error@std@@8" = comdat any

$"\01??_R3_System_error@std@@8" = comdat any

$"\01??_R2_System_error@std@@8" = comdat any

$"\01??_R1A@?0A@EA@runtime_error@std@@8" = comdat any

$"\01??_R3runtime_error@std@@8" = comdat any

$"\01??_R2runtime_error@std@@8" = comdat any

$"\01??_R1A@?0A@EA@exception@std@@8" = comdat any

$"\01??_R3exception@std@@8" = comdat any

$"\01??_R2exception@std@@8" = comdat any

$"\01??_7system_error@std@@6B@" = comdat largest

$"\01??_R4system_error@std@@6B@" = comdat any

$"\01??_7_System_error@std@@6B@" = comdat largest

$"\01??_R4_System_error@std@@6B@" = comdat any

$"\01??_C@_02LMMGGCAJ@?3?5?$AA@" = comdat any

$"\01??_7runtime_error@std@@6B@" = comdat largest

$"\01??_R4runtime_error@std@@6B@" = comdat any

$"\01??_7exception@std@@6B@" = comdat largest

$"\01??_R4exception@std@@6B@" = comdat any

$"\01??_C@_0BC@EOODALEL@Unknown?5exception?$AA@" = comdat any

$"\01?_Psave@?$_Facetptr@V?$ctype@D@std@@@std@@2PBVfacet@locale@2@B" = comdat any

$"\01??_R0?AVbad_cast@std@@@8" = comdat any

$"_CT??_R0?AVbad_cast@std@@@8??0bad_cast@std@@QAE@ABV01@@Z12" = comdat any

$"_CTA2?AVbad_cast@std@@" = comdat any

$"_TI2?AVbad_cast@std@@" = comdat any

$"\01??_C@_00CNPNBAHC@?$AA@" = comdat any

$"\01??_C@_0BA@ELKIONDK@bad?5locale?5name?$AA@" = comdat any

$"_CTA2?AVruntime_error@std@@" = comdat any

$"_TI2?AVruntime_error@std@@" = comdat any

$"\01??_7?$ctype@D@std@@6B@" = comdat largest

$"\01??_R4?$ctype@D@std@@6B@" = comdat any

$"\01??_R0?AV?$ctype@D@std@@@8" = comdat any

$"\01??_R3?$ctype@D@std@@8" = comdat any

$"\01??_R2?$ctype@D@std@@8" = comdat any

$"\01??_R1A@?0A@EA@?$ctype@D@std@@8" = comdat any

$"\01??_R1A@?0A@EA@ctype_base@std@@8" = comdat any

$"\01??_R0?AUctype_base@std@@@8" = comdat any

$"\01??_R3ctype_base@std@@8" = comdat any

$"\01??_R2ctype_base@std@@8" = comdat any

$"\01??_R1A@?0A@EA@facet@locale@std@@8" = comdat any

$"\01??_R0?AVfacet@locale@std@@@8" = comdat any

$"\01??_R3facet@locale@std@@8" = comdat any

$"\01??_R2facet@locale@std@@8" = comdat any

$"\01??_R1A@?0A@EA@_Facet_base@std@@8" = comdat any

$"\01??_R0?AV_Facet_base@std@@@8" = comdat any

$"\01??_R3_Facet_base@std@@8" = comdat any

$"\01??_R2_Facet_base@std@@8" = comdat any

$"\01??_R13?0A@EA@_Crt_new_delete@std@@8" = comdat any

$"\01??_R0?AU_Crt_new_delete@std@@@8" = comdat any

$"\01??_R3_Crt_new_delete@std@@8" = comdat any

$"\01??_R2_Crt_new_delete@std@@8" = comdat any

$"\01??_R1A@?0A@EA@_Crt_new_delete@std@@8" = comdat any

$"\01??_7ctype_base@std@@6B@" = comdat largest

$"\01??_R4ctype_base@std@@6B@" = comdat any

$"\01??_7facet@locale@std@@6B@" = comdat largest

$"\01??_R4facet@locale@std@@6B@" = comdat any

$"\01??_7_Facet_base@std@@6B@" = comdat largest

$"\01??_R4_Facet_base@std@@6B@" = comdat any

$"\01??_C@_08EPJLHIJG@bad?5cast?$AA@" = comdat any

$"\01??_7bad_cast@std@@6B@" = comdat largest

$"\01??_R4bad_cast@std@@6B@" = comdat any

$"\01??_R3bad_cast@std@@8" = comdat any

$"\01??_R2bad_cast@std@@8" = comdat any

$"\01??_R1A@?0A@EA@bad_cast@std@@8" = comdat any

$"\01?_Psave@?$_Facetptr@V?$num_put@DV?$ostreambuf_iterator@DU?$char_traits@D@std@@@std@@@std@@@std@@2PBVfacet@locale@2@B" = comdat any

$"\01??_7?$num_put@DV?$ostreambuf_iterator@DU?$char_traits@D@std@@@std@@@std@@6B@" = comdat largest

$"\01??_R4?$num_put@DV?$ostreambuf_iterator@DU?$char_traits@D@std@@@std@@@std@@6B@" = comdat any

$"\01??_R0?AV?$num_put@DV?$ostreambuf_iterator@DU?$char_traits@D@std@@@std@@@std@@@8" = comdat any

$"\01??_R3?$num_put@DV?$ostreambuf_iterator@DU?$char_traits@D@std@@@std@@@std@@8" = comdat any

$"\01??_R2?$num_put@DV?$ostreambuf_iterator@DU?$char_traits@D@std@@@std@@@std@@8" = comdat any

$"\01??_R1A@?0A@EA@?$num_put@DV?$ostreambuf_iterator@DU?$char_traits@D@std@@@std@@@std@@8" = comdat any

$"\01??_C@_02BBAHNLBA@?$CFp?$AA@" = comdat any

$"\01?_Psave@?$_Facetptr@V?$numpunct@D@std@@@std@@2PBVfacet@locale@2@B" = comdat any

$"\01??_7?$numpunct@D@std@@6B@" = comdat largest

$"\01??_R4?$numpunct@D@std@@6B@" = comdat any

$"\01??_R0?AV?$numpunct@D@std@@@8" = comdat any

$"\01??_R3?$numpunct@D@std@@8" = comdat any

$"\01??_R2?$numpunct@D@std@@8" = comdat any

$"\01??_R1A@?0A@EA@?$numpunct@D@std@@8" = comdat any

$"\01??_C@_05LAPONLG@false?$AA@" = comdat any

$"\01??_C@_04LOAJBDKD@true?$AA@" = comdat any

$"\01?_OptionsStorage@?1??__local_stdio_printf_options@@9@4_KA" = comdat any

$"\01??_C@_02MDKMJEGG@eE?$AA@" = comdat any

$"\01??_C@_02OOPEBDOJ@pP?$AA@" = comdat any

$"\01??_C@_02CLHGNPPK@Lu?$AA@" = comdat any

$"\01??_C@_02HIKPPMOK@Ld?$AA@" = comdat any

$"\01??_C@_02BDDLJJBK@lu?$AA@" = comdat any

$"\01??_C@_02EAOCLKAK@ld?$AA@" = comdat any

@"\01?position@@3HA" = global i32 0, align 4
@"\01?LastChar@@3PADA" = global i8* null, align 4
@"\01?NumVal@@3HA" = global i32 0, align 4
@"\01?opr@@3DA" = global i8 0, align 1
@"\01?precedence_matrix@@3PAY06HA" = global [7 x [7 x i32]] [[7 x i32] [i32 1, i32 1, i32 0, i32 0, i32 0, i32 1, i32 1], [7 x i32] [i32 1, i32 1, i32 0, i32 0, i32 0, i32 1, i32 1], [7 x i32] [i32 1, i32 1, i32 1, i32 1, i32 0, i32 1, i32 1], [7 x i32] [i32 1, i32 1, i32 1, i32 1, i32 0, i32 1, i32 1], [7 x i32] [i32 0, i32 0, i32 0, i32 0, i32 0, i32 2, i32 3], [7 x i32] [i32 1, i32 1, i32 1, i32 1, i32 3, i32 1, i32 1], [7 x i32] [i32 0, i32 0, i32 0, i32 0, i32 0, i32 3, i32 2]], align 4
@"\01?tos@@3HA" = global i32 -1, align 4
@"\01?first@@3PAUtree@@A" = global %struct.tree* null, align 4
@"\01?stack@@3PAUopr@@A" = global [50 x %struct.opr] zeroinitializer, align 4
@"\01?cur_op@@3PADA" = global [7 x i8] c"+-*/()[", align 1
@"\01?stack_op@@3PADA" = global [7 x i8] c"+-*/()]", align 1
@"\01??_C@_0BC@EAOCLDIP@Invalid?5operator?5?$AA@" = linkonce_odr unnamed_addr constant [18 x i8] c"Invalid operator \00", comdat, align 1
@"\01??_C@_0BL@IJKILDAH@?6Expression?5is?5Invalid?4?4?4?6?$AA@" = linkonce_odr unnamed_addr constant [27 x i8] c"\0AExpression is Invalid...\0A\00", comdat, align 1
@"\01?cout@std@@3V?$basic_ostream@DU?$char_traits@D@std@@@1@A" = external global %"class.std::basic_ostream", align 8
@"\01??_C@_0BK@DIFINCHN@?6Expression?5is?5Invalid?$CB?5?6?$AA@" = linkonce_odr unnamed_addr constant [26 x i8] c"\0AExpression is Invalid! \0A\00", comdat, align 1
@"\01??_C@_0DH@KHFCLIPP@?5The?5AST?5for?5given?5expression?5?$CIf@" = linkonce_odr unnamed_addr constant [55 x i8] c" The AST for given expression (from left to right) is \00", comdat, align 1
@"\01??_C@_01CLKCMJKC@?5?$AA@" = linkonce_odr unnamed_addr constant [2 x i8] c" \00", comdat, align 1
@"\01??_C@_0BD@EEMKNDLA@ENTER?5EXPRESSION?3?5?$AA@" = linkonce_odr unnamed_addr constant [19 x i8] c"ENTER EXPRESSION: \00", comdat, align 1
@"\01?cin@std@@3V?$basic_istream@DU?$char_traits@D@std@@@1@A" = external global %"class.std::basic_istream", align 8
@"\01?id@?$num_put@DV?$ostreambuf_iterator@DU?$char_traits@D@std@@@std@@@std@@2V0locale@2@A" = linkonce_odr global %"class.std::locale::id" zeroinitializer, comdat, align 4
@"\01?id@?$numpunct@D@std@@2V0locale@2@A" = linkonce_odr global %"class.std::locale::id" zeroinitializer, comdat, align 4
@"\01??_C@_0BI@CFPLBAOH@invalid?5string?5position?$AA@" = linkonce_odr unnamed_addr constant [24 x i8] c"invalid string position\00", comdat, align 1
@"\01??_C@_0BA@JFNIOLAK@string?5too?5long?$AA@" = linkonce_odr unnamed_addr constant [16 x i8] c"string too long\00", comdat, align 1
@"\01??_C@_0BF@PHHKMMFD@ios_base?3?3badbit?5set?$AA@" = linkonce_odr unnamed_addr constant [21 x i8] c"ios_base::badbit set\00", comdat, align 1
@"\01??_7type_info@@6B@" = external constant i8*
@"\01??_R0?AVfailure@ios_base@std@@@8" = linkonce_odr global %rtti.TypeDescriptor26 { i8** @"\01??_7type_info@@6B@", i8* null, [27 x i8] c".?AVfailure@ios_base@std@@\00" }, comdat
@"_CT??_R0?AVfailure@ios_base@std@@@8??0failure@ios_base@std@@QAE@ABV012@@Z20" = linkonce_odr unnamed_addr constant %eh.CatchableType { i32 0, i8* bitcast (%rtti.TypeDescriptor26* @"\01??_R0?AVfailure@ios_base@std@@@8" to i8*), i32 0, i32 -1, i32 0, i32 20, i8* bitcast (%"class.std::ios_base::failure"* (%"class.std::ios_base::failure"*, %"class.std::ios_base::failure"*)* @"\01??0failure@ios_base@std@@QAE@ABV012@@Z" to i8*) }, section ".xdata", comdat
@"\01??_R0?AVsystem_error@std@@@8" = linkonce_odr global %rtti.TypeDescriptor22 { i8** @"\01??_7type_info@@6B@", i8* null, [23 x i8] c".?AVsystem_error@std@@\00" }, comdat
@"_CT??_R0?AVsystem_error@std@@@8??0system_error@std@@QAE@ABV01@@Z20" = linkonce_odr unnamed_addr constant %eh.CatchableType { i32 0, i8* bitcast (%rtti.TypeDescriptor22* @"\01??_R0?AVsystem_error@std@@@8" to i8*), i32 0, i32 -1, i32 0, i32 20, i8* bitcast (%"class.std::system_error"* (%"class.std::system_error"*, %"class.std::system_error"*)* @"\01??0system_error@std@@QAE@ABV01@@Z" to i8*) }, section ".xdata", comdat
@"\01??_R0?AV_System_error@std@@@8" = linkonce_odr global %rtti.TypeDescriptor23 { i8** @"\01??_7type_info@@6B@", i8* null, [24 x i8] c".?AV_System_error@std@@\00" }, comdat
@"_CT??_R0?AV_System_error@std@@@8??0_System_error@std@@QAE@ABV01@@Z20" = linkonce_odr unnamed_addr constant %eh.CatchableType { i32 0, i8* bitcast (%rtti.TypeDescriptor23* @"\01??_R0?AV_System_error@std@@@8" to i8*), i32 0, i32 -1, i32 0, i32 20, i8* bitcast (%"class.std::_System_error"* (%"class.std::_System_error"*, %"class.std::_System_error"*)* @"\01??0_System_error@std@@QAE@ABV01@@Z" to i8*) }, section ".xdata", comdat
@"\01??_R0?AVruntime_error@std@@@8" = linkonce_odr global %rtti.TypeDescriptor23 { i8** @"\01??_7type_info@@6B@", i8* null, [24 x i8] c".?AVruntime_error@std@@\00" }, comdat
@"_CT??_R0?AVruntime_error@std@@@8??0runtime_error@std@@QAE@ABV01@@Z12" = linkonce_odr unnamed_addr constant %eh.CatchableType { i32 0, i8* bitcast (%rtti.TypeDescriptor23* @"\01??_R0?AVruntime_error@std@@@8" to i8*), i32 0, i32 -1, i32 0, i32 12, i8* bitcast (%"class.std::runtime_error"* (%"class.std::runtime_error"*, %"class.std::runtime_error"*)* @"\01??0runtime_error@std@@QAE@ABV01@@Z" to i8*) }, section ".xdata", comdat
@"\01??_R0?AVexception@std@@@8" = linkonce_odr global %rtti.TypeDescriptor19 { i8** @"\01??_7type_info@@6B@", i8* null, [20 x i8] c".?AVexception@std@@\00" }, comdat
@"_CT??_R0?AVexception@std@@@8??0exception@std@@QAE@ABV01@@Z12" = linkonce_odr unnamed_addr constant %eh.CatchableType { i32 0, i8* bitcast (%rtti.TypeDescriptor19* @"\01??_R0?AVexception@std@@@8" to i8*), i32 0, i32 -1, i32 0, i32 12, i8* bitcast (%"class.std::exception"* (%"class.std::exception"*, %"class.std::exception"*)* @"\01??0exception@std@@QAE@ABV01@@Z" to i8*) }, section ".xdata", comdat
@"_CTA5?AVfailure@ios_base@std@@" = linkonce_odr unnamed_addr constant %eh.CatchableTypeArray.5 { i32 5, [5 x %eh.CatchableType*] [%eh.CatchableType* @"_CT??_R0?AVfailure@ios_base@std@@@8??0failure@ios_base@std@@QAE@ABV012@@Z20", %eh.CatchableType* @"_CT??_R0?AVsystem_error@std@@@8??0system_error@std@@QAE@ABV01@@Z20", %eh.CatchableType* @"_CT??_R0?AV_System_error@std@@@8??0_System_error@std@@QAE@ABV01@@Z20", %eh.CatchableType* @"_CT??_R0?AVruntime_error@std@@@8??0runtime_error@std@@QAE@ABV01@@Z12", %eh.CatchableType* @"_CT??_R0?AVexception@std@@@8??0exception@std@@QAE@ABV01@@Z12"] }, section ".xdata", comdat
@"_TI5?AVfailure@ios_base@std@@" = linkonce_odr unnamed_addr constant %eh.ThrowInfo { i32 0, i8* bitcast (void (%"class.std::ios_base::failure"*)* @"\01??1failure@ios_base@std@@UAE@XZ" to i8*), i8* null, i8* bitcast (%eh.CatchableTypeArray.5* @"_CTA5?AVfailure@ios_base@std@@" to i8*) }, section ".xdata", comdat
@"\01??_C@_0BG@FMKFHCIL@ios_base?3?3failbit?5set?$AA@" = linkonce_odr unnamed_addr constant [22 x i8] c"ios_base::failbit set\00", comdat, align 1
@"\01??_C@_0BF@OOHOMBOF@ios_base?3?3eofbit?5set?$AA@" = linkonce_odr unnamed_addr constant [21 x i8] c"ios_base::eofbit set\00", comdat, align 1
@"\01?_Static@?1???$_Immortalize@V_Iostream_error_category@std@@@std@@YAAAV_Iostream_error_category@1@XZ@4U?$_Immortalizer@V_Iostream_error_category@std@@@1@A" = linkonce_odr global %"struct.std::_Immortalizer" zeroinitializer, comdat, align 4
@"\01?$TSS0@?1???$_Immortalize@V_Iostream_error_category@std@@@std@@YAAAV_Iostream_error_category@0@XZ" = linkonce_odr global i32 0, comdat, align 4
@_Init_thread_epoch = external thread_local global i32, align 4
@0 = private unnamed_addr constant [7 x i8*] [i8* bitcast (%rtti.CompleteObjectLocator* @"\01??_R4_Iostream_error_category@std@@6B@" to i8*), i8* bitcast (i8* (%"class.std::_Iostream_error_category"*, i32)* @"\01??_G_Iostream_error_category@std@@UAEPAXI@Z" to i8*), i8* bitcast (i8* (%"class.std::_Iostream_error_category"*)* @"\01?name@_Iostream_error_category@std@@UBEPBDXZ" to i8*), i8* bitcast (void (%"class.std::_Iostream_error_category"*, %"class.std::basic_string"*, i32)* @"\01?message@_Iostream_error_category@std@@UBE?AV?$basic_string@DU?$char_traits@D@std@@V?$allocator@D@2@@2@H@Z" to i8*), i8* bitcast (void (%"class.std::error_category"*, %"class.std::error_condition"*, i32)* @"\01?default_error_condition@error_category@std@@UBE?AVerror_condition@2@H@Z" to i8*), i8* bitcast (i1 (%"class.std::error_category"*, %"class.std::error_code"*, i32)* @"\01?equivalent@error_category@std@@UBE_NABVerror_code@2@H@Z" to i8*), i8* bitcast (i1 (%"class.std::error_category"*, i32, %"class.std::error_condition"*)* @"\01?equivalent@error_category@std@@UBE_NHABVerror_condition@2@@Z" to i8*)], comdat($"\01??_7_Iostream_error_category@std@@6B@")
@"\01??_R4_Iostream_error_category@std@@6B@" = linkonce_odr constant %rtti.CompleteObjectLocator { i32 0, i32 0, i32 0, i8* bitcast (%rtti.TypeDescriptor34* @"\01??_R0?AV_Iostream_error_category@std@@@8" to i8*), %rtti.ClassHierarchyDescriptor* @"\01??_R3_Iostream_error_category@std@@8" }, comdat
@"\01??_R0?AV_Iostream_error_category@std@@@8" = linkonce_odr global %rtti.TypeDescriptor34 { i8** @"\01??_7type_info@@6B@", i8* null, [35 x i8] c".?AV_Iostream_error_category@std@@\00" }, comdat
@"\01??_R3_Iostream_error_category@std@@8" = linkonce_odr constant %rtti.ClassHierarchyDescriptor { i32 0, i32 0, i32 3, %rtti.BaseClassDescriptor** getelementptr inbounds ([4 x %rtti.BaseClassDescriptor*], [4 x %rtti.BaseClassDescriptor*]* @"\01??_R2_Iostream_error_category@std@@8", i32 0, i32 0) }, comdat
@"\01??_R2_Iostream_error_category@std@@8" = linkonce_odr constant [4 x %rtti.BaseClassDescriptor*] [%rtti.BaseClassDescriptor* @"\01??_R1A@?0A@EA@_Iostream_error_category@std@@8", %rtti.BaseClassDescriptor* @"\01??_R1A@?0A@EA@_Generic_error_category@std@@8", %rtti.BaseClassDescriptor* @"\01??_R1A@?0A@EA@error_category@std@@8", %rtti.BaseClassDescriptor* null], comdat
@"\01??_R1A@?0A@EA@_Iostream_error_category@std@@8" = linkonce_odr constant %rtti.BaseClassDescriptor { i8* bitcast (%rtti.TypeDescriptor34* @"\01??_R0?AV_Iostream_error_category@std@@@8" to i8*), i32 2, i32 0, i32 -1, i32 0, i32 64, %rtti.ClassHierarchyDescriptor* @"\01??_R3_Iostream_error_category@std@@8" }, comdat
@"\01??_R1A@?0A@EA@_Generic_error_category@std@@8" = linkonce_odr constant %rtti.BaseClassDescriptor { i8* bitcast (%rtti.TypeDescriptor33* @"\01??_R0?AV_Generic_error_category@std@@@8" to i8*), i32 1, i32 0, i32 -1, i32 0, i32 64, %rtti.ClassHierarchyDescriptor* @"\01??_R3_Generic_error_category@std@@8" }, comdat
@"\01??_R0?AV_Generic_error_category@std@@@8" = linkonce_odr global %rtti.TypeDescriptor33 { i8** @"\01??_7type_info@@6B@", i8* null, [34 x i8] c".?AV_Generic_error_category@std@@\00" }, comdat
@"\01??_R3_Generic_error_category@std@@8" = linkonce_odr constant %rtti.ClassHierarchyDescriptor { i32 0, i32 0, i32 2, %rtti.BaseClassDescriptor** getelementptr inbounds ([3 x %rtti.BaseClassDescriptor*], [3 x %rtti.BaseClassDescriptor*]* @"\01??_R2_Generic_error_category@std@@8", i32 0, i32 0) }, comdat
@"\01??_R2_Generic_error_category@std@@8" = linkonce_odr constant [3 x %rtti.BaseClassDescriptor*] [%rtti.BaseClassDescriptor* @"\01??_R1A@?0A@EA@_Generic_error_category@std@@8", %rtti.BaseClassDescriptor* @"\01??_R1A@?0A@EA@error_category@std@@8", %rtti.BaseClassDescriptor* null], comdat
@"\01??_R1A@?0A@EA@error_category@std@@8" = linkonce_odr constant %rtti.BaseClassDescriptor { i8* bitcast (%rtti.TypeDescriptor24* @"\01??_R0?AVerror_category@std@@@8" to i8*), i32 0, i32 0, i32 -1, i32 0, i32 64, %rtti.ClassHierarchyDescriptor* @"\01??_R3error_category@std@@8" }, comdat
@"\01??_R0?AVerror_category@std@@@8" = linkonce_odr global %rtti.TypeDescriptor24 { i8** @"\01??_7type_info@@6B@", i8* null, [25 x i8] c".?AVerror_category@std@@\00" }, comdat
@"\01??_R3error_category@std@@8" = linkonce_odr constant %rtti.ClassHierarchyDescriptor { i32 0, i32 0, i32 1, %rtti.BaseClassDescriptor** getelementptr inbounds ([2 x %rtti.BaseClassDescriptor*], [2 x %rtti.BaseClassDescriptor*]* @"\01??_R2error_category@std@@8", i32 0, i32 0) }, comdat
@"\01??_R2error_category@std@@8" = linkonce_odr constant [2 x %rtti.BaseClassDescriptor*] [%rtti.BaseClassDescriptor* @"\01??_R1A@?0A@EA@error_category@std@@8", %rtti.BaseClassDescriptor* null], comdat
@1 = private unnamed_addr constant [7 x i8*] [i8* bitcast (%rtti.CompleteObjectLocator* @"\01??_R4_Generic_error_category@std@@6B@" to i8*), i8* bitcast (i8* (%"class.std::_Generic_error_category"*, i32)* @"\01??_G_Generic_error_category@std@@UAEPAXI@Z" to i8*), i8* bitcast (i8* (%"class.std::_Generic_error_category"*)* @"\01?name@_Generic_error_category@std@@UBEPBDXZ" to i8*), i8* bitcast (void (%"class.std::_Generic_error_category"*, %"class.std::basic_string"*, i32)* @"\01?message@_Generic_error_category@std@@UBE?AV?$basic_string@DU?$char_traits@D@std@@V?$allocator@D@2@@2@H@Z" to i8*), i8* bitcast (void (%"class.std::error_category"*, %"class.std::error_condition"*, i32)* @"\01?default_error_condition@error_category@std@@UBE?AVerror_condition@2@H@Z" to i8*), i8* bitcast (i1 (%"class.std::error_category"*, %"class.std::error_code"*, i32)* @"\01?equivalent@error_category@std@@UBE_NABVerror_code@2@H@Z" to i8*), i8* bitcast (i1 (%"class.std::error_category"*, i32, %"class.std::error_condition"*)* @"\01?equivalent@error_category@std@@UBE_NHABVerror_condition@2@@Z" to i8*)], comdat($"\01??_7_Generic_error_category@std@@6B@")
@"\01??_R4_Generic_error_category@std@@6B@" = linkonce_odr constant %rtti.CompleteObjectLocator { i32 0, i32 0, i32 0, i8* bitcast (%rtti.TypeDescriptor33* @"\01??_R0?AV_Generic_error_category@std@@@8" to i8*), %rtti.ClassHierarchyDescriptor* @"\01??_R3_Generic_error_category@std@@8" }, comdat
@2 = private unnamed_addr constant [7 x i8*] [i8* bitcast (%rtti.CompleteObjectLocator* @"\01??_R4error_category@std@@6B@" to i8*), i8* bitcast (i8* (%"class.std::error_category"*, i32)* @"\01??_Gerror_category@std@@UAEPAXI@Z" to i8*), i8* bitcast (void ()* @_purecall to i8*), i8* bitcast (void ()* @_purecall to i8*), i8* bitcast (void (%"class.std::error_category"*, %"class.std::error_condition"*, i32)* @"\01?default_error_condition@error_category@std@@UBE?AVerror_condition@2@H@Z" to i8*), i8* bitcast (i1 (%"class.std::error_category"*, %"class.std::error_code"*, i32)* @"\01?equivalent@error_category@std@@UBE_NABVerror_code@2@H@Z" to i8*), i8* bitcast (i1 (%"class.std::error_category"*, i32, %"class.std::error_condition"*)* @"\01?equivalent@error_category@std@@UBE_NHABVerror_condition@2@@Z" to i8*)], comdat($"\01??_7error_category@std@@6B@")
@"\01??_R4error_category@std@@6B@" = linkonce_odr constant %rtti.CompleteObjectLocator { i32 0, i32 0, i32 0, i8* bitcast (%rtti.TypeDescriptor24* @"\01??_R0?AVerror_category@std@@@8" to i8*), %rtti.ClassHierarchyDescriptor* @"\01??_R3error_category@std@@8" }, comdat
@"\01??_C@_07DCLBNMLN@generic?$AA@" = linkonce_odr unnamed_addr constant [8 x i8] c"generic\00", comdat, align 1
@"\01??_C@_08LLGCOLLL@iostream?$AA@" = linkonce_odr unnamed_addr constant [9 x i8] c"iostream\00", comdat, align 1
@"\01??_C@_0BG@PADBLCHM@iostream?5stream?5error?$AA@" = linkonce_odr unnamed_addr constant [22 x i8] c"iostream stream error\00", comdat, align 1
@3 = private unnamed_addr constant [3 x i8*] [i8* bitcast (%rtti.CompleteObjectLocator* @"\01??_R4failure@ios_base@std@@6B@" to i8*), i8* bitcast (i8* (%"class.std::ios_base::failure"*, i32)* @"\01??_Gfailure@ios_base@std@@UAEPAXI@Z" to i8*), i8* bitcast (i8* (%"class.std::exception"*)* @"\01?what@exception@std@@UBEPBDXZ" to i8*)], comdat($"\01??_7failure@ios_base@std@@6B@")
@"\01??_R4failure@ios_base@std@@6B@" = linkonce_odr constant %rtti.CompleteObjectLocator { i32 0, i32 0, i32 0, i8* bitcast (%rtti.TypeDescriptor26* @"\01??_R0?AVfailure@ios_base@std@@@8" to i8*), %rtti.ClassHierarchyDescriptor* @"\01??_R3failure@ios_base@std@@8" }, comdat
@"\01??_R3failure@ios_base@std@@8" = linkonce_odr constant %rtti.ClassHierarchyDescriptor { i32 0, i32 0, i32 5, %rtti.BaseClassDescriptor** getelementptr inbounds ([6 x %rtti.BaseClassDescriptor*], [6 x %rtti.BaseClassDescriptor*]* @"\01??_R2failure@ios_base@std@@8", i32 0, i32 0) }, comdat
@"\01??_R2failure@ios_base@std@@8" = linkonce_odr constant [6 x %rtti.BaseClassDescriptor*] [%rtti.BaseClassDescriptor* @"\01??_R1A@?0A@EA@failure@ios_base@std@@8", %rtti.BaseClassDescriptor* @"\01??_R1A@?0A@EA@system_error@std@@8", %rtti.BaseClassDescriptor* @"\01??_R1A@?0A@EA@_System_error@std@@8", %rtti.BaseClassDescriptor* @"\01??_R1A@?0A@EA@runtime_error@std@@8", %rtti.BaseClassDescriptor* @"\01??_R1A@?0A@EA@exception@std@@8", %rtti.BaseClassDescriptor* null], comdat
@"\01??_R1A@?0A@EA@failure@ios_base@std@@8" = linkonce_odr constant %rtti.BaseClassDescriptor { i8* bitcast (%rtti.TypeDescriptor26* @"\01??_R0?AVfailure@ios_base@std@@@8" to i8*), i32 4, i32 0, i32 -1, i32 0, i32 64, %rtti.ClassHierarchyDescriptor* @"\01??_R3failure@ios_base@std@@8" }, comdat
@"\01??_R1A@?0A@EA@system_error@std@@8" = linkonce_odr constant %rtti.BaseClassDescriptor { i8* bitcast (%rtti.TypeDescriptor22* @"\01??_R0?AVsystem_error@std@@@8" to i8*), i32 3, i32 0, i32 -1, i32 0, i32 64, %rtti.ClassHierarchyDescriptor* @"\01??_R3system_error@std@@8" }, comdat
@"\01??_R3system_error@std@@8" = linkonce_odr constant %rtti.ClassHierarchyDescriptor { i32 0, i32 0, i32 4, %rtti.BaseClassDescriptor** getelementptr inbounds ([5 x %rtti.BaseClassDescriptor*], [5 x %rtti.BaseClassDescriptor*]* @"\01??_R2system_error@std@@8", i32 0, i32 0) }, comdat
@"\01??_R2system_error@std@@8" = linkonce_odr constant [5 x %rtti.BaseClassDescriptor*] [%rtti.BaseClassDescriptor* @"\01??_R1A@?0A@EA@system_error@std@@8", %rtti.BaseClassDescriptor* @"\01??_R1A@?0A@EA@_System_error@std@@8", %rtti.BaseClassDescriptor* @"\01??_R1A@?0A@EA@runtime_error@std@@8", %rtti.BaseClassDescriptor* @"\01??_R1A@?0A@EA@exception@std@@8", %rtti.BaseClassDescriptor* null], comdat
@"\01??_R1A@?0A@EA@_System_error@std@@8" = linkonce_odr constant %rtti.BaseClassDescriptor { i8* bitcast (%rtti.TypeDescriptor23* @"\01??_R0?AV_System_error@std@@@8" to i8*), i32 2, i32 0, i32 -1, i32 0, i32 64, %rtti.ClassHierarchyDescriptor* @"\01??_R3_System_error@std@@8" }, comdat
@"\01??_R3_System_error@std@@8" = linkonce_odr constant %rtti.ClassHierarchyDescriptor { i32 0, i32 0, i32 3, %rtti.BaseClassDescriptor** getelementptr inbounds ([4 x %rtti.BaseClassDescriptor*], [4 x %rtti.BaseClassDescriptor*]* @"\01??_R2_System_error@std@@8", i32 0, i32 0) }, comdat
@"\01??_R2_System_error@std@@8" = linkonce_odr constant [4 x %rtti.BaseClassDescriptor*] [%rtti.BaseClassDescriptor* @"\01??_R1A@?0A@EA@_System_error@std@@8", %rtti.BaseClassDescriptor* @"\01??_R1A@?0A@EA@runtime_error@std@@8", %rtti.BaseClassDescriptor* @"\01??_R1A@?0A@EA@exception@std@@8", %rtti.BaseClassDescriptor* null], comdat
@"\01??_R1A@?0A@EA@runtime_error@std@@8" = linkonce_odr constant %rtti.BaseClassDescriptor { i8* bitcast (%rtti.TypeDescriptor23* @"\01??_R0?AVruntime_error@std@@@8" to i8*), i32 1, i32 0, i32 -1, i32 0, i32 64, %rtti.ClassHierarchyDescriptor* @"\01??_R3runtime_error@std@@8" }, comdat
@"\01??_R3runtime_error@std@@8" = linkonce_odr constant %rtti.ClassHierarchyDescriptor { i32 0, i32 0, i32 2, %rtti.BaseClassDescriptor** getelementptr inbounds ([3 x %rtti.BaseClassDescriptor*], [3 x %rtti.BaseClassDescriptor*]* @"\01??_R2runtime_error@std@@8", i32 0, i32 0) }, comdat
@"\01??_R2runtime_error@std@@8" = linkonce_odr constant [3 x %rtti.BaseClassDescriptor*] [%rtti.BaseClassDescriptor* @"\01??_R1A@?0A@EA@runtime_error@std@@8", %rtti.BaseClassDescriptor* @"\01??_R1A@?0A@EA@exception@std@@8", %rtti.BaseClassDescriptor* null], comdat
@"\01??_R1A@?0A@EA@exception@std@@8" = linkonce_odr constant %rtti.BaseClassDescriptor { i8* bitcast (%rtti.TypeDescriptor19* @"\01??_R0?AVexception@std@@@8" to i8*), i32 0, i32 0, i32 -1, i32 0, i32 64, %rtti.ClassHierarchyDescriptor* @"\01??_R3exception@std@@8" }, comdat
@"\01??_R3exception@std@@8" = linkonce_odr constant %rtti.ClassHierarchyDescriptor { i32 0, i32 0, i32 1, %rtti.BaseClassDescriptor** getelementptr inbounds ([2 x %rtti.BaseClassDescriptor*], [2 x %rtti.BaseClassDescriptor*]* @"\01??_R2exception@std@@8", i32 0, i32 0) }, comdat
@"\01??_R2exception@std@@8" = linkonce_odr constant [2 x %rtti.BaseClassDescriptor*] [%rtti.BaseClassDescriptor* @"\01??_R1A@?0A@EA@exception@std@@8", %rtti.BaseClassDescriptor* null], comdat
@4 = private unnamed_addr constant [3 x i8*] [i8* bitcast (%rtti.CompleteObjectLocator* @"\01??_R4system_error@std@@6B@" to i8*), i8* bitcast (i8* (%"class.std::system_error"*, i32)* @"\01??_Gsystem_error@std@@UAEPAXI@Z" to i8*), i8* bitcast (i8* (%"class.std::exception"*)* @"\01?what@exception@std@@UBEPBDXZ" to i8*)], comdat($"\01??_7system_error@std@@6B@")
@"\01??_R4system_error@std@@6B@" = linkonce_odr constant %rtti.CompleteObjectLocator { i32 0, i32 0, i32 0, i8* bitcast (%rtti.TypeDescriptor22* @"\01??_R0?AVsystem_error@std@@@8" to i8*), %rtti.ClassHierarchyDescriptor* @"\01??_R3system_error@std@@8" }, comdat
@5 = private unnamed_addr constant [3 x i8*] [i8* bitcast (%rtti.CompleteObjectLocator* @"\01??_R4_System_error@std@@6B@" to i8*), i8* bitcast (i8* (%"class.std::_System_error"*, i32)* @"\01??_G_System_error@std@@UAEPAXI@Z" to i8*), i8* bitcast (i8* (%"class.std::exception"*)* @"\01?what@exception@std@@UBEPBDXZ" to i8*)], comdat($"\01??_7_System_error@std@@6B@")
@"\01??_R4_System_error@std@@6B@" = linkonce_odr constant %rtti.CompleteObjectLocator { i32 0, i32 0, i32 0, i8* bitcast (%rtti.TypeDescriptor23* @"\01??_R0?AV_System_error@std@@@8" to i8*), %rtti.ClassHierarchyDescriptor* @"\01??_R3_System_error@std@@8" }, comdat
@"\01??_C@_02LMMGGCAJ@?3?5?$AA@" = linkonce_odr unnamed_addr constant [3 x i8] c": \00", comdat, align 1
@6 = private unnamed_addr constant [3 x i8*] [i8* bitcast (%rtti.CompleteObjectLocator* @"\01??_R4runtime_error@std@@6B@" to i8*), i8* bitcast (i8* (%"class.std::runtime_error"*, i32)* @"\01??_Gruntime_error@std@@UAEPAXI@Z" to i8*), i8* bitcast (i8* (%"class.std::exception"*)* @"\01?what@exception@std@@UBEPBDXZ" to i8*)], comdat($"\01??_7runtime_error@std@@6B@")
@"\01??_R4runtime_error@std@@6B@" = linkonce_odr constant %rtti.CompleteObjectLocator { i32 0, i32 0, i32 0, i8* bitcast (%rtti.TypeDescriptor23* @"\01??_R0?AVruntime_error@std@@@8" to i8*), %rtti.ClassHierarchyDescriptor* @"\01??_R3runtime_error@std@@8" }, comdat
@7 = private unnamed_addr constant [3 x i8*] [i8* bitcast (%rtti.CompleteObjectLocator* @"\01??_R4exception@std@@6B@" to i8*), i8* bitcast (i8* (%"class.std::exception"*, i32)* @"\01??_Gexception@std@@UAEPAXI@Z" to i8*), i8* bitcast (i8* (%"class.std::exception"*)* @"\01?what@exception@std@@UBEPBDXZ" to i8*)], comdat($"\01??_7exception@std@@6B@")
@"\01??_R4exception@std@@6B@" = linkonce_odr constant %rtti.CompleteObjectLocator { i32 0, i32 0, i32 0, i8* bitcast (%rtti.TypeDescriptor19* @"\01??_R0?AVexception@std@@@8" to i8*), %rtti.ClassHierarchyDescriptor* @"\01??_R3exception@std@@8" }, comdat
@"\01??_C@_0BC@EOODALEL@Unknown?5exception?$AA@" = linkonce_odr unnamed_addr constant [18 x i8] c"Unknown exception\00", comdat, align 1
@"\01?_Psave@?$_Facetptr@V?$ctype@D@std@@@std@@2PBVfacet@locale@2@B" = linkonce_odr global %"class.std::locale::facet"* null, comdat, align 4
@"\01?id@?$ctype@D@std@@2V0locale@2@A" = external global %"class.std::locale::id", align 4
@"\01??_R0?AVbad_cast@std@@@8" = linkonce_odr global %rtti.TypeDescriptor18 { i8** @"\01??_7type_info@@6B@", i8* null, [19 x i8] c".?AVbad_cast@std@@\00" }, comdat
@"_CT??_R0?AVbad_cast@std@@@8??0bad_cast@std@@QAE@ABV01@@Z12" = linkonce_odr unnamed_addr constant %eh.CatchableType { i32 0, i8* bitcast (%rtti.TypeDescriptor18* @"\01??_R0?AVbad_cast@std@@@8" to i8*), i32 0, i32 -1, i32 0, i32 12, i8* bitcast (%"class.std::bad_cast"* (%"class.std::bad_cast"*, %"class.std::bad_cast"*)* @"\01??0bad_cast@std@@QAE@ABV01@@Z" to i8*) }, section ".xdata", comdat
@"_CTA2?AVbad_cast@std@@" = linkonce_odr unnamed_addr constant %eh.CatchableTypeArray.2 { i32 2, [2 x %eh.CatchableType*] [%eh.CatchableType* @"_CT??_R0?AVbad_cast@std@@@8??0bad_cast@std@@QAE@ABV01@@Z12", %eh.CatchableType* @"_CT??_R0?AVexception@std@@@8??0exception@std@@QAE@ABV01@@Z12"] }, section ".xdata", comdat
@"_TI2?AVbad_cast@std@@" = linkonce_odr unnamed_addr constant %eh.ThrowInfo { i32 0, i8* bitcast (void (%"class.std::bad_cast"*)* @"\01??1bad_cast@std@@UAE@XZ" to i8*), i8* null, i8* bitcast (%eh.CatchableTypeArray.2* @"_CTA2?AVbad_cast@std@@" to i8*) }, section ".xdata", comdat
@"\01?_Id_cnt@id@locale@std@@0HA" = external global i32, align 4
@"\01??_C@_00CNPNBAHC@?$AA@" = linkonce_odr unnamed_addr constant [1 x i8] zeroinitializer, comdat, align 1
@"\01??_C@_0BA@ELKIONDK@bad?5locale?5name?$AA@" = linkonce_odr unnamed_addr constant [16 x i8] c"bad locale name\00", comdat, align 1
@"_CTA2?AVruntime_error@std@@" = linkonce_odr unnamed_addr constant %eh.CatchableTypeArray.2 { i32 2, [2 x %eh.CatchableType*] [%eh.CatchableType* @"_CT??_R0?AVruntime_error@std@@@8??0runtime_error@std@@QAE@ABV01@@Z12", %eh.CatchableType* @"_CT??_R0?AVexception@std@@@8??0exception@std@@QAE@ABV01@@Z12"] }, section ".xdata", comdat
@"_TI2?AVruntime_error@std@@" = linkonce_odr unnamed_addr constant %eh.ThrowInfo { i32 0, i8* bitcast (void (%"class.std::runtime_error"*)* @"\01??1runtime_error@std@@UAE@XZ" to i8*), i8* null, i8* bitcast (%eh.CatchableTypeArray.2* @"_CTA2?AVruntime_error@std@@" to i8*) }, section ".xdata", comdat
@8 = private unnamed_addr constant [12 x i8*] [i8* bitcast (%rtti.CompleteObjectLocator* @"\01??_R4?$ctype@D@std@@6B@" to i8*), i8* bitcast (i8* (%"class.std::ctype"*, i32)* @"\01??_G?$ctype@D@std@@MAEPAXI@Z" to i8*), i8* bitcast (void (%"class.std::locale::facet"*)* @"\01?_Incref@facet@locale@std@@UAEXXZ" to i8*), i8* bitcast (%"class.std::_Facet_base"* (%"class.std::locale::facet"*)* @"\01?_Decref@facet@locale@std@@UAEPAV_Facet_base@3@XZ" to i8*), i8* bitcast (i8* (%"class.std::ctype"*, i8*, i8*)* @"\01?do_tolower@?$ctype@D@std@@MBEPBDPADPBD@Z" to i8*), i8* bitcast (i8 (%"class.std::ctype"*, i8)* @"\01?do_tolower@?$ctype@D@std@@MBEDD@Z" to i8*), i8* bitcast (i8* (%"class.std::ctype"*, i8*, i8*)* @"\01?do_toupper@?$ctype@D@std@@MBEPBDPADPBD@Z" to i8*), i8* bitcast (i8 (%"class.std::ctype"*, i8)* @"\01?do_toupper@?$ctype@D@std@@MBEDD@Z" to i8*), i8* bitcast (i8* (%"class.std::ctype"*, i8*, i8*, i8*)* @"\01?do_widen@?$ctype@D@std@@MBEPBDPBD0PAD@Z" to i8*), i8* bitcast (i8 (%"class.std::ctype"*, i8)* @"\01?do_widen@?$ctype@D@std@@MBEDD@Z" to i8*), i8* bitcast (i8* (%"class.std::ctype"*, i8*, i8*, i8, i8*)* @"\01?do_narrow@?$ctype@D@std@@MBEPBDPBD0DPAD@Z" to i8*), i8* bitcast (i8 (%"class.std::ctype"*, i8, i8)* @"\01?do_narrow@?$ctype@D@std@@MBEDDD@Z" to i8*)], comdat($"\01??_7?$ctype@D@std@@6B@")
@"\01??_R4?$ctype@D@std@@6B@" = linkonce_odr constant %rtti.CompleteObjectLocator { i32 0, i32 0, i32 0, i8* bitcast (%rtti.TypeDescriptor19* @"\01??_R0?AV?$ctype@D@std@@@8" to i8*), %rtti.ClassHierarchyDescriptor* @"\01??_R3?$ctype@D@std@@8" }, comdat
@"\01??_R0?AV?$ctype@D@std@@@8" = linkonce_odr global %rtti.TypeDescriptor19 { i8** @"\01??_7type_info@@6B@", i8* null, [20 x i8] c".?AV?$ctype@D@std@@\00" }, comdat
@"\01??_R3?$ctype@D@std@@8" = linkonce_odr constant %rtti.ClassHierarchyDescriptor { i32 0, i32 1, i32 5, %rtti.BaseClassDescriptor** getelementptr inbounds ([6 x %rtti.BaseClassDescriptor*], [6 x %rtti.BaseClassDescriptor*]* @"\01??_R2?$ctype@D@std@@8", i32 0, i32 0) }, comdat
@"\01??_R2?$ctype@D@std@@8" = linkonce_odr constant [6 x %rtti.BaseClassDescriptor*] [%rtti.BaseClassDescriptor* @"\01??_R1A@?0A@EA@?$ctype@D@std@@8", %rtti.BaseClassDescriptor* @"\01??_R1A@?0A@EA@ctype_base@std@@8", %rtti.BaseClassDescriptor* @"\01??_R1A@?0A@EA@facet@locale@std@@8", %rtti.BaseClassDescriptor* @"\01??_R1A@?0A@EA@_Facet_base@std@@8", %rtti.BaseClassDescriptor* @"\01??_R13?0A@EA@_Crt_new_delete@std@@8", %rtti.BaseClassDescriptor* null], comdat
@"\01??_R1A@?0A@EA@?$ctype@D@std@@8" = linkonce_odr constant %rtti.BaseClassDescriptor { i8* bitcast (%rtti.TypeDescriptor19* @"\01??_R0?AV?$ctype@D@std@@@8" to i8*), i32 4, i32 0, i32 -1, i32 0, i32 64, %rtti.ClassHierarchyDescriptor* @"\01??_R3?$ctype@D@std@@8" }, comdat
@"\01??_R1A@?0A@EA@ctype_base@std@@8" = linkonce_odr constant %rtti.BaseClassDescriptor { i8* bitcast (%rtti.TypeDescriptor20* @"\01??_R0?AUctype_base@std@@@8" to i8*), i32 3, i32 0, i32 -1, i32 0, i32 64, %rtti.ClassHierarchyDescriptor* @"\01??_R3ctype_base@std@@8" }, comdat
@"\01??_R0?AUctype_base@std@@@8" = linkonce_odr global %rtti.TypeDescriptor20 { i8** @"\01??_7type_info@@6B@", i8* null, [21 x i8] c".?AUctype_base@std@@\00" }, comdat
@"\01??_R3ctype_base@std@@8" = linkonce_odr constant %rtti.ClassHierarchyDescriptor { i32 0, i32 1, i32 4, %rtti.BaseClassDescriptor** getelementptr inbounds ([5 x %rtti.BaseClassDescriptor*], [5 x %rtti.BaseClassDescriptor*]* @"\01??_R2ctype_base@std@@8", i32 0, i32 0) }, comdat
@"\01??_R2ctype_base@std@@8" = linkonce_odr constant [5 x %rtti.BaseClassDescriptor*] [%rtti.BaseClassDescriptor* @"\01??_R1A@?0A@EA@ctype_base@std@@8", %rtti.BaseClassDescriptor* @"\01??_R1A@?0A@EA@facet@locale@std@@8", %rtti.BaseClassDescriptor* @"\01??_R1A@?0A@EA@_Facet_base@std@@8", %rtti.BaseClassDescriptor* @"\01??_R13?0A@EA@_Crt_new_delete@std@@8", %rtti.BaseClassDescriptor* null], comdat
@"\01??_R1A@?0A@EA@facet@locale@std@@8" = linkonce_odr constant %rtti.BaseClassDescriptor { i8* bitcast (%rtti.TypeDescriptor22* @"\01??_R0?AVfacet@locale@std@@@8" to i8*), i32 2, i32 0, i32 -1, i32 0, i32 64, %rtti.ClassHierarchyDescriptor* @"\01??_R3facet@locale@std@@8" }, comdat
@"\01??_R0?AVfacet@locale@std@@@8" = linkonce_odr global %rtti.TypeDescriptor22 { i8** @"\01??_7type_info@@6B@", i8* null, [23 x i8] c".?AVfacet@locale@std@@\00" }, comdat
@"\01??_R3facet@locale@std@@8" = linkonce_odr constant %rtti.ClassHierarchyDescriptor { i32 0, i32 1, i32 3, %rtti.BaseClassDescriptor** getelementptr inbounds ([4 x %rtti.BaseClassDescriptor*], [4 x %rtti.BaseClassDescriptor*]* @"\01??_R2facet@locale@std@@8", i32 0, i32 0) }, comdat
@"\01??_R2facet@locale@std@@8" = linkonce_odr constant [4 x %rtti.BaseClassDescriptor*] [%rtti.BaseClassDescriptor* @"\01??_R1A@?0A@EA@facet@locale@std@@8", %rtti.BaseClassDescriptor* @"\01??_R1A@?0A@EA@_Facet_base@std@@8", %rtti.BaseClassDescriptor* @"\01??_R13?0A@EA@_Crt_new_delete@std@@8", %rtti.BaseClassDescriptor* null], comdat
@"\01??_R1A@?0A@EA@_Facet_base@std@@8" = linkonce_odr constant %rtti.BaseClassDescriptor { i8* bitcast (%rtti.TypeDescriptor21* @"\01??_R0?AV_Facet_base@std@@@8" to i8*), i32 0, i32 0, i32 -1, i32 0, i32 64, %rtti.ClassHierarchyDescriptor* @"\01??_R3_Facet_base@std@@8" }, comdat
@"\01??_R0?AV_Facet_base@std@@@8" = linkonce_odr global %rtti.TypeDescriptor21 { i8** @"\01??_7type_info@@6B@", i8* null, [22 x i8] c".?AV_Facet_base@std@@\00" }, comdat
@"\01??_R3_Facet_base@std@@8" = linkonce_odr constant %rtti.ClassHierarchyDescriptor { i32 0, i32 0, i32 1, %rtti.BaseClassDescriptor** getelementptr inbounds ([2 x %rtti.BaseClassDescriptor*], [2 x %rtti.BaseClassDescriptor*]* @"\01??_R2_Facet_base@std@@8", i32 0, i32 0) }, comdat
@"\01??_R2_Facet_base@std@@8" = linkonce_odr constant [2 x %rtti.BaseClassDescriptor*] [%rtti.BaseClassDescriptor* @"\01??_R1A@?0A@EA@_Facet_base@std@@8", %rtti.BaseClassDescriptor* null], comdat
@"\01??_R13?0A@EA@_Crt_new_delete@std@@8" = linkonce_odr constant %rtti.BaseClassDescriptor { i8* bitcast (%rtti.TypeDescriptor25* @"\01??_R0?AU_Crt_new_delete@std@@@8" to i8*), i32 0, i32 4, i32 -1, i32 0, i32 64, %rtti.ClassHierarchyDescriptor* @"\01??_R3_Crt_new_delete@std@@8" }, comdat
@"\01??_R0?AU_Crt_new_delete@std@@@8" = linkonce_odr global %rtti.TypeDescriptor25 { i8** @"\01??_7type_info@@6B@", i8* null, [26 x i8] c".?AU_Crt_new_delete@std@@\00" }, comdat
@"\01??_R3_Crt_new_delete@std@@8" = linkonce_odr constant %rtti.ClassHierarchyDescriptor { i32 0, i32 0, i32 1, %rtti.BaseClassDescriptor** getelementptr inbounds ([2 x %rtti.BaseClassDescriptor*], [2 x %rtti.BaseClassDescriptor*]* @"\01??_R2_Crt_new_delete@std@@8", i32 0, i32 0) }, comdat
@"\01??_R2_Crt_new_delete@std@@8" = linkonce_odr constant [2 x %rtti.BaseClassDescriptor*] [%rtti.BaseClassDescriptor* @"\01??_R1A@?0A@EA@_Crt_new_delete@std@@8", %rtti.BaseClassDescriptor* null], comdat
@"\01??_R1A@?0A@EA@_Crt_new_delete@std@@8" = linkonce_odr constant %rtti.BaseClassDescriptor { i8* bitcast (%rtti.TypeDescriptor25* @"\01??_R0?AU_Crt_new_delete@std@@@8" to i8*), i32 0, i32 0, i32 -1, i32 0, i32 64, %rtti.ClassHierarchyDescriptor* @"\01??_R3_Crt_new_delete@std@@8" }, comdat
@9 = private unnamed_addr constant [4 x i8*] [i8* bitcast (%rtti.CompleteObjectLocator* @"\01??_R4ctype_base@std@@6B@" to i8*), i8* bitcast (i8* (%"struct.std::ctype_base"*, i32)* @"\01??_Gctype_base@std@@UAEPAXI@Z" to i8*), i8* bitcast (void (%"class.std::locale::facet"*)* @"\01?_Incref@facet@locale@std@@UAEXXZ" to i8*), i8* bitcast (%"class.std::_Facet_base"* (%"class.std::locale::facet"*)* @"\01?_Decref@facet@locale@std@@UAEPAV_Facet_base@3@XZ" to i8*)], comdat($"\01??_7ctype_base@std@@6B@")
@"\01??_R4ctype_base@std@@6B@" = linkonce_odr constant %rtti.CompleteObjectLocator { i32 0, i32 0, i32 0, i8* bitcast (%rtti.TypeDescriptor20* @"\01??_R0?AUctype_base@std@@@8" to i8*), %rtti.ClassHierarchyDescriptor* @"\01??_R3ctype_base@std@@8" }, comdat
@10 = private unnamed_addr constant [4 x i8*] [i8* bitcast (%rtti.CompleteObjectLocator* @"\01??_R4facet@locale@std@@6B@" to i8*), i8* bitcast (i8* (%"class.std::locale::facet"*, i32)* @"\01??_Gfacet@locale@std@@MAEPAXI@Z" to i8*), i8* bitcast (void (%"class.std::locale::facet"*)* @"\01?_Incref@facet@locale@std@@UAEXXZ" to i8*), i8* bitcast (%"class.std::_Facet_base"* (%"class.std::locale::facet"*)* @"\01?_Decref@facet@locale@std@@UAEPAV_Facet_base@3@XZ" to i8*)], comdat($"\01??_7facet@locale@std@@6B@")
@"\01??_R4facet@locale@std@@6B@" = linkonce_odr constant %rtti.CompleteObjectLocator { i32 0, i32 0, i32 0, i8* bitcast (%rtti.TypeDescriptor22* @"\01??_R0?AVfacet@locale@std@@@8" to i8*), %rtti.ClassHierarchyDescriptor* @"\01??_R3facet@locale@std@@8" }, comdat
@11 = private unnamed_addr constant [4 x i8*] [i8* bitcast (%rtti.CompleteObjectLocator* @"\01??_R4_Facet_base@std@@6B@" to i8*), i8* bitcast (i8* (%"class.std::_Facet_base"*, i32)* @"\01??_G_Facet_base@std@@UAEPAXI@Z" to i8*), i8* bitcast (void ()* @_purecall to i8*), i8* bitcast (void ()* @_purecall to i8*)], comdat($"\01??_7_Facet_base@std@@6B@")
@"\01??_R4_Facet_base@std@@6B@" = linkonce_odr constant %rtti.CompleteObjectLocator { i32 0, i32 0, i32 0, i8* bitcast (%rtti.TypeDescriptor21* @"\01??_R0?AV_Facet_base@std@@@8" to i8*), %rtti.ClassHierarchyDescriptor* @"\01??_R3_Facet_base@std@@8" }, comdat
@"\01??_C@_08EPJLHIJG@bad?5cast?$AA@" = linkonce_odr unnamed_addr constant [9 x i8] c"bad cast\00", comdat, align 1
@12 = private unnamed_addr constant [3 x i8*] [i8* bitcast (%rtti.CompleteObjectLocator* @"\01??_R4bad_cast@std@@6B@" to i8*), i8* bitcast (i8* (%"class.std::bad_cast"*, i32)* @"\01??_Gbad_cast@std@@UAEPAXI@Z" to i8*), i8* bitcast (i8* (%"class.std::exception"*)* @"\01?what@exception@std@@UBEPBDXZ" to i8*)], comdat($"\01??_7bad_cast@std@@6B@")
@"\01??_R4bad_cast@std@@6B@" = linkonce_odr constant %rtti.CompleteObjectLocator { i32 0, i32 0, i32 0, i8* bitcast (%rtti.TypeDescriptor18* @"\01??_R0?AVbad_cast@std@@@8" to i8*), %rtti.ClassHierarchyDescriptor* @"\01??_R3bad_cast@std@@8" }, comdat
@"\01??_R3bad_cast@std@@8" = linkonce_odr constant %rtti.ClassHierarchyDescriptor { i32 0, i32 0, i32 2, %rtti.BaseClassDescriptor** getelementptr inbounds ([3 x %rtti.BaseClassDescriptor*], [3 x %rtti.BaseClassDescriptor*]* @"\01??_R2bad_cast@std@@8", i32 0, i32 0) }, comdat
@"\01??_R2bad_cast@std@@8" = linkonce_odr constant [3 x %rtti.BaseClassDescriptor*] [%rtti.BaseClassDescriptor* @"\01??_R1A@?0A@EA@bad_cast@std@@8", %rtti.BaseClassDescriptor* @"\01??_R1A@?0A@EA@exception@std@@8", %rtti.BaseClassDescriptor* null], comdat
@"\01??_R1A@?0A@EA@bad_cast@std@@8" = linkonce_odr constant %rtti.BaseClassDescriptor { i8* bitcast (%rtti.TypeDescriptor18* @"\01??_R0?AVbad_cast@std@@@8" to i8*), i32 1, i32 0, i32 -1, i32 0, i32 64, %rtti.ClassHierarchyDescriptor* @"\01??_R3bad_cast@std@@8" }, comdat
@"\01?_Psave@?$_Facetptr@V?$num_put@DV?$ostreambuf_iterator@DU?$char_traits@D@std@@@std@@@std@@@std@@2PBVfacet@locale@2@B" = linkonce_odr global %"class.std::locale::facet"* null, comdat, align 4
@13 = private unnamed_addr constant [12 x i8*] [i8* bitcast (%rtti.CompleteObjectLocator* @"\01??_R4?$num_put@DV?$ostreambuf_iterator@DU?$char_traits@D@std@@@std@@@std@@6B@" to i8*), i8* bitcast (i8* (%"class.std::num_put"*, i32)* @"\01??_G?$num_put@DV?$ostreambuf_iterator@DU?$char_traits@D@std@@@std@@@std@@MAEPAXI@Z" to i8*), i8* bitcast (void (%"class.std::locale::facet"*)* @"\01?_Incref@facet@locale@std@@UAEXXZ" to i8*), i8* bitcast (%"class.std::_Facet_base"* (%"class.std::locale::facet"*)* @"\01?_Decref@facet@locale@std@@UAEPAV_Facet_base@3@XZ" to i8*), i8* bitcast (void (%"class.std::num_put"*, %"class.std::ostreambuf_iterator"*, %"class.std::ostreambuf_iterator"*, %"class.std::ios_base"*, i8, i8*)* @"\01?do_put@?$num_put@DV?$ostreambuf_iterator@DU?$char_traits@D@std@@@std@@@std@@MBE?AV?$ostreambuf_iterator@DU?$char_traits@D@std@@@2@V32@AAVios_base@2@DPBX@Z" to i8*), i8* bitcast (void (%"class.std::num_put"*, %"class.std::ostreambuf_iterator"*, %"class.std::ostreambuf_iterator"*, %"class.std::ios_base"*, i8, double)* @"\01?do_put@?$num_put@DV?$ostreambuf_iterator@DU?$char_traits@D@std@@@std@@@std@@MBE?AV?$ostreambuf_iterator@DU?$char_traits@D@std@@@2@V32@AAVios_base@2@DO@Z" to i8*), i8* bitcast (void (%"class.std::num_put"*, %"class.std::ostreambuf_iterator"*, %"class.std::ostreambuf_iterator"*, %"class.std::ios_base"*, i8, double)* @"\01?do_put@?$num_put@DV?$ostreambuf_iterator@DU?$char_traits@D@std@@@std@@@std@@MBE?AV?$ostreambuf_iterator@DU?$char_traits@D@std@@@2@V32@AAVios_base@2@DN@Z" to i8*), i8* bitcast (void (%"class.std::num_put"*, %"class.std::ostreambuf_iterator"*, %"class.std::ostreambuf_iterator"*, %"class.std::ios_base"*, i8, i64)* @"\01?do_put@?$num_put@DV?$ostreambuf_iterator@DU?$char_traits@D@std@@@std@@@std@@MBE?AV?$ostreambuf_iterator@DU?$char_traits@D@std@@@2@V32@AAVios_base@2@D_K@Z" to i8*), i8* bitcast (void (%"class.std::num_put"*, %"class.std::ostreambuf_iterator"*, %"class.std::ostreambuf_iterator"*, %"class.std::ios_base"*, i8, i64)* @"\01?do_put@?$num_put@DV?$ostreambuf_iterator@DU?$char_traits@D@std@@@std@@@std@@MBE?AV?$ostreambuf_iterator@DU?$char_traits@D@std@@@2@V32@AAVios_base@2@D_J@Z" to i8*), i8* bitcast (void (%"class.std::num_put"*, %"class.std::ostreambuf_iterator"*, %"class.std::ostreambuf_iterator"*, %"class.std::ios_base"*, i8, i32)* @"\01?do_put@?$num_put@DV?$ostreambuf_iterator@DU?$char_traits@D@std@@@std@@@std@@MBE?AV?$ostreambuf_iterator@DU?$char_traits@D@std@@@2@V32@AAVios_base@2@DK@Z" to i8*), i8* bitcast (void (%"class.std::num_put"*, %"class.std::ostreambuf_iterator"*, %"class.std::ostreambuf_iterator"*, %"class.std::ios_base"*, i8, i32)* @"\01?do_put@?$num_put@DV?$ostreambuf_iterator@DU?$char_traits@D@std@@@std@@@std@@MBE?AV?$ostreambuf_iterator@DU?$char_traits@D@std@@@2@V32@AAVios_base@2@DJ@Z" to i8*), i8* bitcast (void (%"class.std::num_put"*, %"class.std::ostreambuf_iterator"*, %"class.std::ostreambuf_iterator"*, %"class.std::ios_base"*, i8, i1)* @"\01?do_put@?$num_put@DV?$ostreambuf_iterator@DU?$char_traits@D@std@@@std@@@std@@MBE?AV?$ostreambuf_iterator@DU?$char_traits@D@std@@@2@V32@AAVios_base@2@D_N@Z" to i8*)], comdat($"\01??_7?$num_put@DV?$ostreambuf_iterator@DU?$char_traits@D@std@@@std@@@std@@6B@")
@"\01??_R4?$num_put@DV?$ostreambuf_iterator@DU?$char_traits@D@std@@@std@@@std@@6B@" = linkonce_odr constant %rtti.CompleteObjectLocator { i32 0, i32 0, i32 0, i8* bitcast (%rtti.TypeDescriptor73* @"\01??_R0?AV?$num_put@DV?$ostreambuf_iterator@DU?$char_traits@D@std@@@std@@@std@@@8" to i8*), %rtti.ClassHierarchyDescriptor* @"\01??_R3?$num_put@DV?$ostreambuf_iterator@DU?$char_traits@D@std@@@std@@@std@@8" }, comdat
@"\01??_R0?AV?$num_put@DV?$ostreambuf_iterator@DU?$char_traits@D@std@@@std@@@std@@@8" = linkonce_odr global %rtti.TypeDescriptor73 { i8** @"\01??_7type_info@@6B@", i8* null, [74 x i8] c".?AV?$num_put@DV?$ostreambuf_iterator@DU?$char_traits@D@std@@@std@@@std@@\00" }, comdat
@"\01??_R3?$num_put@DV?$ostreambuf_iterator@DU?$char_traits@D@std@@@std@@@std@@8" = linkonce_odr constant %rtti.ClassHierarchyDescriptor { i32 0, i32 1, i32 4, %rtti.BaseClassDescriptor** getelementptr inbounds ([5 x %rtti.BaseClassDescriptor*], [5 x %rtti.BaseClassDescriptor*]* @"\01??_R2?$num_put@DV?$ostreambuf_iterator@DU?$char_traits@D@std@@@std@@@std@@8", i32 0, i32 0) }, comdat
@"\01??_R2?$num_put@DV?$ostreambuf_iterator@DU?$char_traits@D@std@@@std@@@std@@8" = linkonce_odr constant [5 x %rtti.BaseClassDescriptor*] [%rtti.BaseClassDescriptor* @"\01??_R1A@?0A@EA@?$num_put@DV?$ostreambuf_iterator@DU?$char_traits@D@std@@@std@@@std@@8", %rtti.BaseClassDescriptor* @"\01??_R1A@?0A@EA@facet@locale@std@@8", %rtti.BaseClassDescriptor* @"\01??_R1A@?0A@EA@_Facet_base@std@@8", %rtti.BaseClassDescriptor* @"\01??_R13?0A@EA@_Crt_new_delete@std@@8", %rtti.BaseClassDescriptor* null], comdat
@"\01??_R1A@?0A@EA@?$num_put@DV?$ostreambuf_iterator@DU?$char_traits@D@std@@@std@@@std@@8" = linkonce_odr constant %rtti.BaseClassDescriptor { i8* bitcast (%rtti.TypeDescriptor73* @"\01??_R0?AV?$num_put@DV?$ostreambuf_iterator@DU?$char_traits@D@std@@@std@@@std@@@8" to i8*), i32 3, i32 0, i32 -1, i32 0, i32 64, %rtti.ClassHierarchyDescriptor* @"\01??_R3?$num_put@DV?$ostreambuf_iterator@DU?$char_traits@D@std@@@std@@@std@@8" }, comdat
@"\01??_C@_02BBAHNLBA@?$CFp?$AA@" = linkonce_odr unnamed_addr constant [3 x i8] c"%p\00", comdat, align 1
@"\01?_Psave@?$_Facetptr@V?$numpunct@D@std@@@std@@2PBVfacet@locale@2@B" = linkonce_odr global %"class.std::locale::facet"* null, comdat, align 4
@14 = private unnamed_addr constant [9 x i8*] [i8* bitcast (%rtti.CompleteObjectLocator* @"\01??_R4?$numpunct@D@std@@6B@" to i8*), i8* bitcast (i8* (%"class.std::numpunct"*, i32)* @"\01??_G?$numpunct@D@std@@MAEPAXI@Z" to i8*), i8* bitcast (void (%"class.std::locale::facet"*)* @"\01?_Incref@facet@locale@std@@UAEXXZ" to i8*), i8* bitcast (%"class.std::_Facet_base"* (%"class.std::locale::facet"*)* @"\01?_Decref@facet@locale@std@@UAEPAV_Facet_base@3@XZ" to i8*), i8* bitcast (i8 (%"class.std::numpunct"*)* @"\01?do_decimal_point@?$numpunct@D@std@@MBEDXZ" to i8*), i8* bitcast (i8 (%"class.std::numpunct"*)* @"\01?do_thousands_sep@?$numpunct@D@std@@MBEDXZ" to i8*), i8* bitcast (void (%"class.std::numpunct"*, %"class.std::basic_string"*)* @"\01?do_grouping@?$numpunct@D@std@@MBE?AV?$basic_string@DU?$char_traits@D@std@@V?$allocator@D@2@@2@XZ" to i8*), i8* bitcast (void (%"class.std::numpunct"*, %"class.std::basic_string"*)* @"\01?do_falsename@?$numpunct@D@std@@MBE?AV?$basic_string@DU?$char_traits@D@std@@V?$allocator@D@2@@2@XZ" to i8*), i8* bitcast (void (%"class.std::numpunct"*, %"class.std::basic_string"*)* @"\01?do_truename@?$numpunct@D@std@@MBE?AV?$basic_string@DU?$char_traits@D@std@@V?$allocator@D@2@@2@XZ" to i8*)], comdat($"\01??_7?$numpunct@D@std@@6B@")
@"\01??_R4?$numpunct@D@std@@6B@" = linkonce_odr constant %rtti.CompleteObjectLocator { i32 0, i32 0, i32 0, i8* bitcast (%rtti.TypeDescriptor22* @"\01??_R0?AV?$numpunct@D@std@@@8" to i8*), %rtti.ClassHierarchyDescriptor* @"\01??_R3?$numpunct@D@std@@8" }, comdat
@"\01??_R0?AV?$numpunct@D@std@@@8" = linkonce_odr global %rtti.TypeDescriptor22 { i8** @"\01??_7type_info@@6B@", i8* null, [23 x i8] c".?AV?$numpunct@D@std@@\00" }, comdat
@"\01??_R3?$numpunct@D@std@@8" = linkonce_odr constant %rtti.ClassHierarchyDescriptor { i32 0, i32 1, i32 4, %rtti.BaseClassDescriptor** getelementptr inbounds ([5 x %rtti.BaseClassDescriptor*], [5 x %rtti.BaseClassDescriptor*]* @"\01??_R2?$numpunct@D@std@@8", i32 0, i32 0) }, comdat
@"\01??_R2?$numpunct@D@std@@8" = linkonce_odr constant [5 x %rtti.BaseClassDescriptor*] [%rtti.BaseClassDescriptor* @"\01??_R1A@?0A@EA@?$numpunct@D@std@@8", %rtti.BaseClassDescriptor* @"\01??_R1A@?0A@EA@facet@locale@std@@8", %rtti.BaseClassDescriptor* @"\01??_R1A@?0A@EA@_Facet_base@std@@8", %rtti.BaseClassDescriptor* @"\01??_R13?0A@EA@_Crt_new_delete@std@@8", %rtti.BaseClassDescriptor* null], comdat
@"\01??_R1A@?0A@EA@?$numpunct@D@std@@8" = linkonce_odr constant %rtti.BaseClassDescriptor { i8* bitcast (%rtti.TypeDescriptor22* @"\01??_R0?AV?$numpunct@D@std@@@8" to i8*), i32 3, i32 0, i32 -1, i32 0, i32 64, %rtti.ClassHierarchyDescriptor* @"\01??_R3?$numpunct@D@std@@8" }, comdat
@"\01??_C@_05LAPONLG@false?$AA@" = linkonce_odr unnamed_addr constant [6 x i8] c"false\00", comdat, align 1
@"\01??_C@_04LOAJBDKD@true?$AA@" = linkonce_odr unnamed_addr constant [5 x i8] c"true\00", comdat, align 1
@"\01?_OptionsStorage@?1??__local_stdio_printf_options@@9@4_KA" = linkonce_odr global i64 0, comdat, align 8
@"\01??_C@_02MDKMJEGG@eE?$AA@" = linkonce_odr unnamed_addr constant [3 x i8] c"eE\00", comdat, align 1
@"\01??_C@_02OOPEBDOJ@pP?$AA@" = linkonce_odr unnamed_addr constant [3 x i8] c"pP\00", comdat, align 1
@"\01?_Dp@?1??_Fput@?$num_put@DV?$ostreambuf_iterator@DU?$char_traits@D@std@@@std@@@std@@ABA?AV?$ostreambuf_iterator@DU?$char_traits@D@std@@@3@V43@AAVios_base@3@DPBDI@Z@3PADA" = private unnamed_addr constant [2 x i8] c".\00", align 1
@"\01??_C@_02CLHGNPPK@Lu?$AA@" = linkonce_odr unnamed_addr constant [3 x i8] c"Lu\00", comdat, align 1
@"\01??_C@_02HIKPPMOK@Ld?$AA@" = linkonce_odr unnamed_addr constant [3 x i8] c"Ld\00", comdat, align 1
@"\01??_C@_02BDDLJJBK@lu?$AA@" = linkonce_odr unnamed_addr constant [3 x i8] c"lu\00", comdat, align 1
@"\01??_C@_02EAOCLKAK@ld?$AA@" = linkonce_odr unnamed_addr constant [3 x i8] c"ld\00", comdat, align 1
@llvm.global_ctors = appending global [2 x { i32, void ()*, i8* }] [{ i32, void ()*, i8* } { i32 65535, void ()* @"\01??__Eid@?$num_put@DV?$ostreambuf_iterator@DU?$char_traits@D@std@@@std@@@std@@2V0locale@2@A@YAXXZ", i8* bitcast (%"class.std::locale::id"* @"\01?id@?$num_put@DV?$ostreambuf_iterator@DU?$char_traits@D@std@@@std@@@std@@2V0locale@2@A" to i8*) }, { i32, void ()*, i8* } { i32 65535, void ()* @"\01??__Eid@?$numpunct@D@std@@2V0locale@2@A@YAXXZ", i8* bitcast (%"class.std::locale::id"* @"\01?id@?$numpunct@D@std@@2V0locale@2@A" to i8*) }]

@"\01??_7_Iostream_error_category@std@@6B@" = unnamed_addr alias i8*, getelementptr inbounds ([7 x i8*], [7 x i8*]* @0, i32 0, i32 1)
@"\01??_7_Generic_error_category@std@@6B@" = unnamed_addr alias i8*, getelementptr inbounds ([7 x i8*], [7 x i8*]* @1, i32 0, i32 1)
@"\01??_7error_category@std@@6B@" = unnamed_addr alias i8*, getelementptr inbounds ([7 x i8*], [7 x i8*]* @2, i32 0, i32 1)
@"\01??_7failure@ios_base@std@@6B@" = unnamed_addr alias i8*, getelementptr inbounds ([3 x i8*], [3 x i8*]* @3, i32 0, i32 1)
@"\01??_7system_error@std@@6B@" = unnamed_addr alias i8*, getelementptr inbounds ([3 x i8*], [3 x i8*]* @4, i32 0, i32 1)
@"\01??_7_System_error@std@@6B@" = unnamed_addr alias i8*, getelementptr inbounds ([3 x i8*], [3 x i8*]* @5, i32 0, i32 1)
@"\01??_7runtime_error@std@@6B@" = unnamed_addr alias i8*, getelementptr inbounds ([3 x i8*], [3 x i8*]* @6, i32 0, i32 1)
@"\01??_7exception@std@@6B@" = unnamed_addr alias i8*, getelementptr inbounds ([3 x i8*], [3 x i8*]* @7, i32 0, i32 1)
@"\01??_7?$ctype@D@std@@6B@" = unnamed_addr alias i8*, getelementptr inbounds ([12 x i8*], [12 x i8*]* @8, i32 0, i32 1)
@"\01??_7ctype_base@std@@6B@" = unnamed_addr alias i8*, getelementptr inbounds ([4 x i8*], [4 x i8*]* @9, i32 0, i32 1)
@"\01??_7facet@locale@std@@6B@" = unnamed_addr alias i8*, getelementptr inbounds ([4 x i8*], [4 x i8*]* @10, i32 0, i32 1)
@"\01??_7_Facet_base@std@@6B@" = unnamed_addr alias i8*, getelementptr inbounds ([4 x i8*], [4 x i8*]* @11, i32 0, i32 1)
@"\01??_7bad_cast@std@@6B@" = unnamed_addr alias i8*, getelementptr inbounds ([3 x i8*], [3 x i8*]* @12, i32 0, i32 1)
@"\01??_7?$num_put@DV?$ostreambuf_iterator@DU?$char_traits@D@std@@@std@@@std@@6B@" = unnamed_addr alias i8*, getelementptr inbounds ([12 x i8*], [12 x i8*]* @13, i32 0, i32 1)
@"\01??_7?$numpunct@D@std@@6B@" = unnamed_addr alias i8*, getelementptr inbounds ([9 x i8*], [9 x i8*]* @14, i32 0, i32 1)

; Function Attrs: nounwind
define void @"\01?init_string@@YAXPAD@Z"(i8* %arg) #0 {
entry:
  %arg.addr = alloca i8*, align 4
  store i8* %arg, i8** %arg.addr, align 4
  %0 = load i8*, i8** %arg.addr, align 4
  store i8* %0, i8** @"\01?LastChar@@3PADA", align 4
  ret void
}

; Function Attrs: nounwind
define void @"\01?decrement_pointer@@YAXXZ"() #0 {
entry:
  %0 = load i8*, i8** @"\01?LastChar@@3PADA", align 4
  %incdec.ptr = getelementptr inbounds i8, i8* %0, i32 -1
  store i8* %incdec.ptr, i8** @"\01?LastChar@@3PADA", align 4
  ret void
}

; Function Attrs: nounwind
define i32 @"\01?get_token@@YAHXZ"() #0 {
entry:
  %retval = alloca i32, align 4
  %NumStr = alloca %"class.std::basic_string", align 4
  %0 = load i8*, i8** @"\01?LastChar@@3PADA", align 4
  %1 = load i8, i8* %0, align 1
  %tobool = icmp ne i8 %1, 0
  br i1 %tobool, label %if.then, label %if.end

if.then:                                          ; preds = %entry
  %2 = load i8*, i8** @"\01?LastChar@@3PADA", align 4
  %3 = load i8, i8* %2, align 1
  %conv = sext i8 %3 to i32
  %call = call i32 @isdigit(i32 %conv)
  %tobool1 = icmp ne i32 %call, 0
  br i1 %tobool1, label %if.then2, label %if.else

if.then2:                                         ; preds = %if.then
  %call3 = call x86_thiscallcc %"class.std::basic_string"* @"\01??0?$basic_string@DU?$char_traits@D@std@@V?$allocator@D@2@@std@@QAE@XZ"(%"class.std::basic_string"* %NumStr) #9
  br label %do.body

do.body:                                          ; preds = %land.end, %if.then2
  %4 = load i8*, i8** @"\01?LastChar@@3PADA", align 4
  %call4 = call x86_thiscallcc dereferenceable(24) %"class.std::basic_string"* @"\01??Y?$basic_string@DU?$char_traits@D@std@@V?$allocator@D@2@@std@@QAEAAV01@PBD@Z"(%"class.std::basic_string"* %NumStr, i8* %4)
  %5 = load i8*, i8** @"\01?LastChar@@3PADA", align 4
  %incdec.ptr = getelementptr inbounds i8, i8* %5, i32 1
  store i8* %incdec.ptr, i8** @"\01?LastChar@@3PADA", align 4
  br label %do.cond

do.cond:                                          ; preds = %do.body
  %6 = load i8*, i8** @"\01?LastChar@@3PADA", align 4
  %7 = load i8, i8* %6, align 1
  %tobool5 = icmp ne i8 %7, 0
  br i1 %tobool5, label %land.rhs, label %land.end

land.rhs:                                         ; preds = %do.cond
  %8 = load i8*, i8** @"\01?LastChar@@3PADA", align 4
  %9 = load i8, i8* %8, align 1
  %conv6 = sext i8 %9 to i32
  %call7 = call i32 @isdigit(i32 %conv6)
  %tobool8 = icmp ne i32 %call7, 0
  br label %land.end

land.end:                                         ; preds = %land.rhs, %do.cond
  %10 = phi i1 [ false, %do.cond ], [ %tobool8, %land.rhs ]
  br i1 %10, label %do.body, label %do.end

do.end:                                           ; preds = %land.end
  %call9 = call x86_thiscallcc i8* @"\01?c_str@?$basic_string@DU?$char_traits@D@std@@V?$allocator@D@2@@std@@QBEPBDXZ"(%"class.std::basic_string"* %NumStr) #9
  %call10 = call double @strtod(i8* %call9, i8** null)
  %conv11 = fptosi double %call10 to i32
  store i32 %conv11, i32* @"\01?NumVal@@3HA", align 4
  store i32 1, i32* %retval, align 4
  call x86_thiscallcc void @"\01??1?$basic_string@DU?$char_traits@D@std@@V?$allocator@D@2@@std@@QAE@XZ"(%"class.std::basic_string"* %NumStr) #9
  br label %return

if.else:                                          ; preds = %if.then
  %11 = load i8*, i8** @"\01?LastChar@@3PADA", align 4
  %12 = load i8, i8* %11, align 1
  store i8 %12, i8* @"\01?opr@@3DA", align 1
  %13 = load i8*, i8** @"\01?LastChar@@3PADA", align 4
  %incdec.ptr12 = getelementptr inbounds i8, i8* %13, i32 1
  store i8* %incdec.ptr12, i8** @"\01?LastChar@@3PADA", align 4
  store i32 2, i32* %retval, align 4
  br label %return

if.end:                                           ; preds = %entry
  store i32 4, i32* %retval, align 4
  br label %return

return:                                           ; preds = %if.end, %if.else, %do.end
  %14 = load i32, i32* %retval, align 4
  ret i32 %14
}

declare i32 @isdigit(i32) #1

; Function Attrs: nounwind
define linkonce_odr x86_thiscallcc %"class.std::basic_string"* @"\01??0?$basic_string@DU?$char_traits@D@std@@V?$allocator@D@2@@std@@QAE@XZ"(%"class.std::basic_string"* returned %this) unnamed_addr #0 comdat align 2 {
entry:
  %this.addr = alloca %"class.std::basic_string"*, align 4
  %ref.tmp = alloca %"class.std::allocator", align 1
  store %"class.std::basic_string"* %this, %"class.std::basic_string"** %this.addr, align 4
  %this1 = load %"class.std::basic_string"*, %"class.std::basic_string"** %this.addr, align 4
  %0 = bitcast %"class.std::basic_string"* %this1 to %"class.std::_String_alloc"*
  %call = call x86_thiscallcc %"class.std::allocator"* @"\01??0?$allocator@D@std@@QAE@XZ"(%"class.std::allocator"* %ref.tmp) #9
  %call2 = call x86_thiscallcc %"class.std::_String_alloc"* @"\01??0?$_String_alloc@U?$_String_base_types@DV?$allocator@D@std@@@std@@@std@@QAE@ABV?$allocator@D@1@@Z"(%"class.std::_String_alloc"* %0, %"class.std::allocator"* dereferenceable(1) %ref.tmp)
  call x86_thiscallcc void @"\01?_Tidy@?$basic_string@DU?$char_traits@D@std@@V?$allocator@D@2@@std@@QAEX_NI@Z"(%"class.std::basic_string"* %this1, i1 zeroext false, i32 0)
  ret %"class.std::basic_string"* %this1
}

; Function Attrs: nounwind
define linkonce_odr x86_thiscallcc dereferenceable(24) %"class.std::basic_string"* @"\01??Y?$basic_string@DU?$char_traits@D@std@@V?$allocator@D@2@@std@@QAEAAV01@PBD@Z"(%"class.std::basic_string"* %this, i8* %_Ptr) #0 comdat align 2 {
entry:
  %_Ptr.addr = alloca i8*, align 4
  %this.addr = alloca %"class.std::basic_string"*, align 4
  store i8* %_Ptr, i8** %_Ptr.addr, align 4
  store %"class.std::basic_string"* %this, %"class.std::basic_string"** %this.addr, align 4
  %this1 = load %"class.std::basic_string"*, %"class.std::basic_string"** %this.addr, align 4
  %0 = load i8*, i8** %_Ptr.addr, align 4
  %call = call x86_thiscallcc dereferenceable(24) %"class.std::basic_string"* @"\01?append@?$basic_string@DU?$char_traits@D@std@@V?$allocator@D@2@@std@@QAEAAV12@PBD@Z"(%"class.std::basic_string"* %this1, i8* %0)
  ret %"class.std::basic_string"* %call
}

declare double @strtod(i8*, i8**) #1

; Function Attrs: nounwind
define linkonce_odr x86_thiscallcc i8* @"\01?c_str@?$basic_string@DU?$char_traits@D@std@@V?$allocator@D@2@@std@@QBEPBDXZ"(%"class.std::basic_string"* %this) #0 comdat align 2 {
entry:
  %this.addr = alloca %"class.std::basic_string"*, align 4
  store %"class.std::basic_string"* %this, %"class.std::basic_string"** %this.addr, align 4
  %this1 = load %"class.std::basic_string"*, %"class.std::basic_string"** %this.addr, align 4
  %0 = bitcast %"class.std::basic_string"* %this1 to %"class.std::_String_alloc"*
  %call = call x86_thiscallcc i8* @"\01?_Myptr@?$_String_alloc@U?$_String_base_types@DV?$allocator@D@std@@@std@@@std@@QBEPBDXZ"(%"class.std::_String_alloc"* %0)
  ret i8* %call
}

; Function Attrs: nounwind
define linkonce_odr x86_thiscallcc void @"\01??1?$basic_string@DU?$char_traits@D@std@@V?$allocator@D@2@@std@@QAE@XZ"(%"class.std::basic_string"* %this) unnamed_addr #0 comdat align 2 {
entry:
  %this.addr = alloca %"class.std::basic_string"*, align 4
  store %"class.std::basic_string"* %this, %"class.std::basic_string"** %this.addr, align 4
  %this1 = load %"class.std::basic_string"*, %"class.std::basic_string"** %this.addr, align 4
  call x86_thiscallcc void @"\01?_Tidy@?$basic_string@DU?$char_traits@D@std@@V?$allocator@D@2@@std@@QAEX_NI@Z"(%"class.std::basic_string"* %this1, i1 zeroext true, i32 0)
  ret void
}

; Function Attrs: nounwind
define void @"\01?parser@@YAXXZ"() #0 {
entry:
  %row = alloca i32, align 4
  %col = alloca i32, align 4
  %temp = alloca %struct.tree*, align 4
  %type = alloca i32, align 4
  store i32 0, i32* %row, align 4
  store i32 0, i32* %col, align 4
  store i32 0, i32* %type, align 4
  br label %while.cond

while.cond:                                       ; preds = %if.end69, %entry
  %call = call i32 @"\01?get_token@@YAHXZ"()
  store i32 %call, i32* %type, align 4
  %cmp = icmp ne i32 %call, 4
  br i1 %cmp, label %while.body, label %while.end

while.body:                                       ; preds = %while.cond
  %0 = load i32, i32* %type, align 4
  %cmp1 = icmp eq i32 %0, 1
  br i1 %cmp1, label %if.then, label %if.else

if.then:                                          ; preds = %while.body
  %call2 = call noalias i8* @malloc(i32 16)
  %1 = bitcast i8* %call2 to %struct.tree*
  %2 = load i32, i32* @"\01?tos@@3HA", align 4
  %arrayidx = getelementptr inbounds [50 x %struct.opr], [50 x %struct.opr]* @"\01?stack@@3PAUopr@@A", i32 0, i32 %2
  %t = getelementptr inbounds %struct.opr, %struct.opr* %arrayidx, i32 0, i32 1
  store %struct.tree* %1, %struct.tree** %t, align 4
  %3 = load i32, i32* @"\01?NumVal@@3HA", align 4
  %4 = load i32, i32* @"\01?tos@@3HA", align 4
  %arrayidx3 = getelementptr inbounds [50 x %struct.opr], [50 x %struct.opr]* @"\01?stack@@3PAUopr@@A", i32 0, i32 %4
  %t4 = getelementptr inbounds %struct.opr, %struct.opr* %arrayidx3, i32 0, i32 1
  %5 = load %struct.tree*, %struct.tree** %t4, align 4
  %data = getelementptr inbounds %struct.tree, %struct.tree* %5, i32 0, i32 0
  store i32 %3, i32* %data, align 4
  %6 = load i32, i32* @"\01?tos@@3HA", align 4
  %arrayidx5 = getelementptr inbounds [50 x %struct.opr], [50 x %struct.opr]* @"\01?stack@@3PAUopr@@A", i32 0, i32 %6
  %t6 = getelementptr inbounds %struct.opr, %struct.opr* %arrayidx5, i32 0, i32 1
  %7 = load %struct.tree*, %struct.tree** %t6, align 4
  %type7 = getelementptr inbounds %struct.tree, %struct.tree* %7, i32 0, i32 3
  store i32 1, i32* %type7, align 4
  %8 = load i32, i32* @"\01?tos@@3HA", align 4
  %arrayidx8 = getelementptr inbounds [50 x %struct.opr], [50 x %struct.opr]* @"\01?stack@@3PAUopr@@A", i32 0, i32 %8
  %t9 = getelementptr inbounds %struct.opr, %struct.opr* %arrayidx8, i32 0, i32 1
  %9 = load %struct.tree*, %struct.tree** %t9, align 4
  %lptr = getelementptr inbounds %struct.tree, %struct.tree* %9, i32 0, i32 1
  store %struct.tree* null, %struct.tree** %lptr, align 4
  %10 = load i32, i32* @"\01?tos@@3HA", align 4
  %arrayidx10 = getelementptr inbounds [50 x %struct.opr], [50 x %struct.opr]* @"\01?stack@@3PAUopr@@A", i32 0, i32 %10
  %t11 = getelementptr inbounds %struct.opr, %struct.opr* %arrayidx10, i32 0, i32 1
  %11 = load %struct.tree*, %struct.tree** %t11, align 4
  %rptr = getelementptr inbounds %struct.tree, %struct.tree* %11, i32 0, i32 2
  store %struct.tree* null, %struct.tree** %rptr, align 4
  br label %if.end69

if.else:                                          ; preds = %while.body
  %12 = load i8, i8* @"\01?opr@@3DA", align 1
  %call12 = call i32 @"\01?is_operator@@YAHD@Z"(i8 signext %12)
  %cmp13 = icmp eq i32 %call12, -1
  br i1 %cmp13, label %if.then14, label %if.else18

if.then14:                                        ; preds = %if.else
  %13 = load i8, i8* @"\01?opr@@3DA", align 1
  %call15 = call dereferenceable(80) %"class.std::basic_ostream"* @"\01??$?6U?$char_traits@D@std@@@std@@YAAAV?$basic_ostream@DU?$char_traits@D@std@@@0@AAV10@PBD@Z"(%"class.std::basic_ostream"* dereferenceable(80) @"\01?cout@std@@3V?$basic_ostream@DU?$char_traits@D@std@@@1@A", i8* getelementptr inbounds ([27 x i8], [27 x i8]* @"\01??_C@_0BL@IJKILDAH@?6Expression?5is?5Invalid?4?4?4?6?$AA@", i32 0, i32 0))
  %call16 = call dereferenceable(80) %"class.std::basic_ostream"* @"\01??$?6U?$char_traits@D@std@@@std@@YAAAV?$basic_ostream@DU?$char_traits@D@std@@@0@AAV10@PBD@Z"(%"class.std::basic_ostream"* dereferenceable(80) %call15, i8* getelementptr inbounds ([18 x i8], [18 x i8]* @"\01??_C@_0BC@EAOCLDIP@Invalid?5operator?5?$AA@", i32 0, i32 0))
  %call17 = call dereferenceable(80) %"class.std::basic_ostream"* @"\01??$?6U?$char_traits@D@std@@@std@@YAAAV?$basic_ostream@DU?$char_traits@D@std@@@0@AAV10@D@Z"(%"class.std::basic_ostream"* dereferenceable(80) %call16, i8 signext %13)
  br label %return

if.else18:                                        ; preds = %if.else
  %14 = load i32, i32* @"\01?tos@@3HA", align 4
  %arrayidx19 = getelementptr inbounds [50 x %struct.opr], [50 x %struct.opr]* @"\01?stack@@3PAUopr@@A", i32 0, i32 %14
  %op_name = getelementptr inbounds %struct.opr, %struct.opr* %arrayidx19, i32 0, i32 0
  %15 = load i8, i8* %op_name, align 4
  %call20 = call i32 @"\01?get_index@@YAHD@Z"(i8 signext %15)
  store i32 %call20, i32* %row, align 4
  %16 = load i8, i8* @"\01?opr@@3DA", align 1
  %call21 = call i32 @"\01?get_index@@YAHD@Z"(i8 signext %16)
  store i32 %call21, i32* %col, align 4
  %17 = load i32, i32* %col, align 4
  %18 = load i32, i32* %row, align 4
  %arrayidx22 = getelementptr inbounds [7 x [7 x i32]], [7 x [7 x i32]]* @"\01?precedence_matrix@@3PAY06HA", i32 0, i32 %18
  %arrayidx23 = getelementptr inbounds [7 x i32], [7 x i32]* %arrayidx22, i32 0, i32 %17
  %19 = load i32, i32* %arrayidx23, align 4
  %cmp24 = icmp eq i32 %19, 0
  br i1 %cmp24, label %if.then25, label %if.else28

if.then25:                                        ; preds = %if.else18
  %20 = load i32, i32* @"\01?tos@@3HA", align 4
  %inc = add nsw i32 %20, 1
  store i32 %inc, i32* @"\01?tos@@3HA", align 4
  %21 = load i8, i8* @"\01?opr@@3DA", align 1
  %22 = load i32, i32* @"\01?tos@@3HA", align 4
  %arrayidx26 = getelementptr inbounds [50 x %struct.opr], [50 x %struct.opr]* @"\01?stack@@3PAUopr@@A", i32 0, i32 %22
  %op_name27 = getelementptr inbounds %struct.opr, %struct.opr* %arrayidx26, i32 0, i32 0
  store i8 %21, i8* %op_name27, align 4
  br label %if.end67

if.else28:                                        ; preds = %if.else18
  %23 = load i32, i32* %col, align 4
  %24 = load i32, i32* %row, align 4
  %arrayidx29 = getelementptr inbounds [7 x [7 x i32]], [7 x [7 x i32]]* @"\01?precedence_matrix@@3PAY06HA", i32 0, i32 %24
  %arrayidx30 = getelementptr inbounds [7 x i32], [7 x i32]* %arrayidx29, i32 0, i32 %23
  %25 = load i32, i32* %arrayidx30, align 4
  %cmp31 = icmp eq i32 %25, 1
  br i1 %cmp31, label %if.then32, label %if.else46

if.then32:                                        ; preds = %if.else28
  %call33 = call noalias i8* @malloc(i32 16)
  %26 = bitcast i8* %call33 to %struct.tree*
  store %struct.tree* %26, %struct.tree** %temp, align 4
  %27 = load i32, i32* @"\01?tos@@3HA", align 4
  %arrayidx34 = getelementptr inbounds [50 x %struct.opr], [50 x %struct.opr]* @"\01?stack@@3PAUopr@@A", i32 0, i32 %27
  %op_name35 = getelementptr inbounds %struct.opr, %struct.opr* %arrayidx34, i32 0, i32 0
  %28 = load i8, i8* %op_name35, align 4
  %conv = sext i8 %28 to i32
  %29 = load %struct.tree*, %struct.tree** %temp, align 4
  %data36 = getelementptr inbounds %struct.tree, %struct.tree* %29, i32 0, i32 0
  store i32 %conv, i32* %data36, align 4
  %30 = load %struct.tree*, %struct.tree** %temp, align 4
  %type37 = getelementptr inbounds %struct.tree, %struct.tree* %30, i32 0, i32 3
  store i32 2, i32* %type37, align 4
  %31 = load i32, i32* @"\01?tos@@3HA", align 4
  %sub = sub nsw i32 %31, 1
  %arrayidx38 = getelementptr inbounds [50 x %struct.opr], [50 x %struct.opr]* @"\01?stack@@3PAUopr@@A", i32 0, i32 %sub
  %t39 = getelementptr inbounds %struct.opr, %struct.opr* %arrayidx38, i32 0, i32 1
  %32 = load %struct.tree*, %struct.tree** %t39, align 4
  %33 = load %struct.tree*, %struct.tree** %temp, align 4
  %lptr40 = getelementptr inbounds %struct.tree, %struct.tree* %33, i32 0, i32 1
  store %struct.tree* %32, %struct.tree** %lptr40, align 4
  %34 = load i32, i32* @"\01?tos@@3HA", align 4
  %arrayidx41 = getelementptr inbounds [50 x %struct.opr], [50 x %struct.opr]* @"\01?stack@@3PAUopr@@A", i32 0, i32 %34
  %t42 = getelementptr inbounds %struct.opr, %struct.opr* %arrayidx41, i32 0, i32 1
  %35 = load %struct.tree*, %struct.tree** %t42, align 4
  %36 = load %struct.tree*, %struct.tree** %temp, align 4
  %rptr43 = getelementptr inbounds %struct.tree, %struct.tree* %36, i32 0, i32 2
  store %struct.tree* %35, %struct.tree** %rptr43, align 4
  %37 = load i32, i32* @"\01?tos@@3HA", align 4
  %dec = add nsw i32 %37, -1
  store i32 %dec, i32* @"\01?tos@@3HA", align 4
  %38 = load %struct.tree*, %struct.tree** %temp, align 4
  %39 = load i32, i32* @"\01?tos@@3HA", align 4
  %arrayidx44 = getelementptr inbounds [50 x %struct.opr], [50 x %struct.opr]* @"\01?stack@@3PAUopr@@A", i32 0, i32 %39
  %t45 = getelementptr inbounds %struct.opr, %struct.opr* %arrayidx44, i32 0, i32 1
  store %struct.tree* %38, %struct.tree** %t45, align 4
  call void @"\01?decrement_pointer@@YAXXZ"()
  br label %if.end66

if.else46:                                        ; preds = %if.else28
  %40 = load i32, i32* %col, align 4
  %41 = load i32, i32* %row, align 4
  %arrayidx47 = getelementptr inbounds [7 x [7 x i32]], [7 x [7 x i32]]* @"\01?precedence_matrix@@3PAY06HA", i32 0, i32 %41
  %arrayidx48 = getelementptr inbounds [7 x i32], [7 x i32]* %arrayidx47, i32 0, i32 %40
  %42 = load i32, i32* %arrayidx48, align 4
  %cmp49 = icmp eq i32 %42, 2
  br i1 %cmp49, label %if.then50, label %if.else58

if.then50:                                        ; preds = %if.else46
  %43 = load i32, i32* @"\01?tos@@3HA", align 4
  %arrayidx51 = getelementptr inbounds [50 x %struct.opr], [50 x %struct.opr]* @"\01?stack@@3PAUopr@@A", i32 0, i32 %43
  %t52 = getelementptr inbounds %struct.opr, %struct.opr* %arrayidx51, i32 0, i32 1
  %44 = load %struct.tree*, %struct.tree** %t52, align 4
  store %struct.tree* %44, %struct.tree** %temp, align 4
  %45 = load i32, i32* @"\01?tos@@3HA", align 4
  %cmp53 = icmp sgt i32 %45, 0
  br i1 %cmp53, label %if.then54, label %if.end

if.then54:                                        ; preds = %if.then50
  %46 = load i32, i32* @"\01?tos@@3HA", align 4
  %dec55 = add nsw i32 %46, -1
  store i32 %dec55, i32* @"\01?tos@@3HA", align 4
  %47 = load %struct.tree*, %struct.tree** %temp, align 4
  %48 = load i32, i32* @"\01?tos@@3HA", align 4
  %arrayidx56 = getelementptr inbounds [50 x %struct.opr], [50 x %struct.opr]* @"\01?stack@@3PAUopr@@A", i32 0, i32 %48
  %t57 = getelementptr inbounds %struct.opr, %struct.opr* %arrayidx56, i32 0, i32 1
  store %struct.tree* %47, %struct.tree** %t57, align 4
  br label %if.end

if.end:                                           ; preds = %if.then54, %if.then50
  br label %if.end65

if.else58:                                        ; preds = %if.else46
  %49 = load i32, i32* %col, align 4
  %50 = load i32, i32* %row, align 4
  %arrayidx59 = getelementptr inbounds [7 x [7 x i32]], [7 x [7 x i32]]* @"\01?precedence_matrix@@3PAY06HA", i32 0, i32 %50
  %arrayidx60 = getelementptr inbounds [7 x i32], [7 x i32]* %arrayidx59, i32 0, i32 %49
  %51 = load i32, i32* %arrayidx60, align 4
  %cmp61 = icmp eq i32 %51, 3
  br i1 %cmp61, label %if.then62, label %if.end64

if.then62:                                        ; preds = %if.else58
  %call63 = call dereferenceable(80) %"class.std::basic_ostream"* @"\01??$?6U?$char_traits@D@std@@@std@@YAAAV?$basic_ostream@DU?$char_traits@D@std@@@0@AAV10@PBD@Z"(%"class.std::basic_ostream"* dereferenceable(80) @"\01?cout@std@@3V?$basic_ostream@DU?$char_traits@D@std@@@1@A", i8* getelementptr inbounds ([26 x i8], [26 x i8]* @"\01??_C@_0BK@DIFINCHN@?6Expression?5is?5Invalid?$CB?5?6?$AA@", i32 0, i32 0))
  br label %return

if.end64:                                         ; preds = %if.else58
  br label %if.end65

if.end65:                                         ; preds = %if.end64, %if.end
  br label %if.end66

if.end66:                                         ; preds = %if.end65, %if.then32
  br label %if.end67

if.end67:                                         ; preds = %if.end66, %if.then25
  br label %if.end68

if.end68:                                         ; preds = %if.end67
  br label %if.end69

if.end69:                                         ; preds = %if.end68, %if.then
  br label %while.cond

while.end:                                        ; preds = %while.cond
  %call70 = call x86_thiscallcc dereferenceable(80) %"class.std::basic_ostream"* @"\01??6?$basic_ostream@DU?$char_traits@D@std@@@std@@QAEAAV01@P6AAAV01@AAV01@@Z@Z"(%"class.std::basic_ostream"* @"\01?cout@std@@3V?$basic_ostream@DU?$char_traits@D@std@@@1@A", %"class.std::basic_ostream"* (%"class.std::basic_ostream"*)* @"\01??$endl@DU?$char_traits@D@std@@@std@@YAAAV?$basic_ostream@DU?$char_traits@D@std@@@0@AAV10@@Z")
  %call71 = call dereferenceable(80) %"class.std::basic_ostream"* @"\01??$?6U?$char_traits@D@std@@@std@@YAAAV?$basic_ostream@DU?$char_traits@D@std@@@0@AAV10@PBD@Z"(%"class.std::basic_ostream"* dereferenceable(80) %call70, i8* getelementptr inbounds ([55 x i8], [55 x i8]* @"\01??_C@_0DH@KHFCLIPP@?5The?5AST?5for?5given?5expression?5?$CIf@", i32 0, i32 0))
  %call72 = call x86_thiscallcc dereferenceable(80) %"class.std::basic_ostream"* @"\01??6?$basic_ostream@DU?$char_traits@D@std@@@std@@QAEAAV01@P6AAAV01@AAV01@@Z@Z"(%"class.std::basic_ostream"* %call71, %"class.std::basic_ostream"* (%"class.std::basic_ostream"*)* @"\01??$endl@DU?$char_traits@D@std@@@std@@YAAAV?$basic_ostream@DU?$char_traits@D@std@@@0@AAV10@@Z")
  %52 = load i32, i32* @"\01?tos@@3HA", align 4
  %arrayidx73 = getelementptr inbounds [50 x %struct.opr], [50 x %struct.opr]* @"\01?stack@@3PAUopr@@A", i32 0, i32 %52
  %t74 = getelementptr inbounds %struct.opr, %struct.opr* %arrayidx73, i32 0, i32 1
  %53 = load %struct.tree*, %struct.tree** %t74, align 4
  call void @"\01?display_AST@@YAXPAUtree@@H@Z"(%struct.tree* %53, i32 0)
  br label %return

return:                                           ; preds = %while.end, %if.then62, %if.then14
  ret void
}

declare noalias i8* @malloc(i32) #1

; Function Attrs: nounwind
define i32 @"\01?is_operator@@YAHD@Z"(i8 signext %c) #0 {
entry:
  %retval = alloca i32, align 4
  %c.addr = alloca i8, align 1
  %i = alloca i32, align 4
  store i8 %c, i8* %c.addr, align 1
  store i32 0, i32* %i, align 4
  store i32 0, i32* %i, align 4
  br label %for.cond

for.cond:                                         ; preds = %for.inc, %entry
  %0 = load i32, i32* %i, align 4
  %cmp = icmp slt i32 %0, 7
  br i1 %cmp, label %for.body, label %for.end

for.body:                                         ; preds = %for.cond
  %1 = load i8, i8* %c.addr, align 1
  %conv = sext i8 %1 to i32
  %2 = load i32, i32* %i, align 4
  %arrayidx = getelementptr inbounds [7 x i8], [7 x i8]* @"\01?cur_op@@3PADA", i32 0, i32 %2
  %3 = load i8, i8* %arrayidx, align 1
  %conv1 = sext i8 %3 to i32
  %cmp2 = icmp eq i32 %conv, %conv1
  br i1 %cmp2, label %if.then, label %lor.lhs.false

lor.lhs.false:                                    ; preds = %for.body
  %4 = load i8, i8* %c.addr, align 1
  %conv3 = sext i8 %4 to i32
  %5 = load i32, i32* %i, align 4
  %arrayidx4 = getelementptr inbounds [7 x i8], [7 x i8]* @"\01?stack_op@@3PADA", i32 0, i32 %5
  %6 = load i8, i8* %arrayidx4, align 1
  %conv5 = sext i8 %6 to i32
  %cmp6 = icmp eq i32 %conv3, %conv5
  br i1 %cmp6, label %if.then, label %if.end

if.then:                                          ; preds = %lor.lhs.false, %for.body
  br label %for.end

if.end:                                           ; preds = %lor.lhs.false
  br label %for.inc

for.inc:                                          ; preds = %if.end
  %7 = load i32, i32* %i, align 4
  %inc = add nsw i32 %7, 1
  store i32 %inc, i32* %i, align 4
  br label %for.cond

for.end:                                          ; preds = %if.then, %for.cond
  %8 = load i32, i32* %i, align 4
  %cmp7 = icmp eq i32 %8, 7
  br i1 %cmp7, label %if.then8, label %if.else

if.then8:                                         ; preds = %for.end
  store i32 -1, i32* %retval, align 4
  br label %return

if.else:                                          ; preds = %for.end
  %9 = load i32, i32* %i, align 4
  store i32 %9, i32* %retval, align 4
  br label %return

return:                                           ; preds = %if.else, %if.then8
  %10 = load i32, i32* %retval, align 4
  ret i32 %10
}

; Function Attrs: inlinehint nounwind
define linkonce_odr dereferenceable(80) %"class.std::basic_ostream"* @"\01??$?6U?$char_traits@D@std@@@std@@YAAAV?$basic_ostream@DU?$char_traits@D@std@@@0@AAV10@D@Z"(%"class.std::basic_ostream"* dereferenceable(80) %_Ostr, i8 signext %_Ch) #2 comdat {
entry:
  %_Ch.addr = alloca i8, align 1
  %_Ostr.addr = alloca %"class.std::basic_ostream"*, align 4
  %_State = alloca i32, align 4
  %_Ok = alloca %"class.std::basic_ostream<char, std::char_traits<char> >::sentry", align 4
  %_Pad = alloca i64, align 8
  %ref.tmp = alloca i32, align 4
  %ref.tmp28 = alloca i32, align 4
  %ref.tmp34 = alloca i32, align 4
  %ref.tmp41 = alloca i32, align 4
  %ref.tmp53 = alloca i32, align 4
  %ref.tmp65 = alloca i32, align 4
  store i8 %_Ch, i8* %_Ch.addr, align 1
  store %"class.std::basic_ostream"* %_Ostr, %"class.std::basic_ostream"** %_Ostr.addr, align 4
  store i32 0, i32* %_State, align 4
  %0 = load %"class.std::basic_ostream"*, %"class.std::basic_ostream"** %_Ostr.addr, align 4
  %call = call x86_thiscallcc %"class.std::basic_ostream<char, std::char_traits<char> >::sentry"* @"\01??0sentry@?$basic_ostream@DU?$char_traits@D@std@@@std@@QAE@AAV12@@Z"(%"class.std::basic_ostream<char, std::char_traits<char> >::sentry"* %_Ok, %"class.std::basic_ostream"* dereferenceable(80) %0)
  %call1 = call x86_thiscallcc zeroext i1 @"\01??Bsentry@?$basic_ostream@DU?$char_traits@D@std@@@std@@QBE_NXZ"(%"class.std::basic_ostream<char, std::char_traits<char> >::sentry"* %_Ok)
  br i1 %call1, label %if.then, label %if.end74

if.then:                                          ; preds = %entry
  %1 = load %"class.std::basic_ostream"*, %"class.std::basic_ostream"** %_Ostr.addr, align 4
  %2 = bitcast %"class.std::basic_ostream"* %1 to i8*
  %vbptr = getelementptr inbounds i8, i8* %2, i32 0
  %3 = bitcast i8* %vbptr to i32**
  %vbtable = load i32*, i32** %3, align 8
  %4 = getelementptr inbounds i32, i32* %vbtable, i32 1
  %vbase_offs = load i32, i32* %4, align 4
  %5 = add nsw i32 0, %vbase_offs
  %6 = bitcast %"class.std::basic_ostream"* %1 to i8*
  %add.ptr = getelementptr inbounds i8, i8* %6, i32 %5
  %7 = bitcast i8* %add.ptr to %"class.std::ios_base"*
  %call2 = call x86_thiscallcc i64 @"\01?width@ios_base@std@@QBE_JXZ"(%"class.std::ios_base"* %7)
  %cmp = icmp sle i64 %call2, 1
  br i1 %cmp, label %cond.true, label %cond.false

cond.true:                                        ; preds = %if.then
  br label %cond.end

cond.false:                                       ; preds = %if.then
  %8 = load %"class.std::basic_ostream"*, %"class.std::basic_ostream"** %_Ostr.addr, align 4
  %9 = bitcast %"class.std::basic_ostream"* %8 to i8*
  %vbptr3 = getelementptr inbounds i8, i8* %9, i32 0
  %10 = bitcast i8* %vbptr3 to i32**
  %vbtable4 = load i32*, i32** %10, align 8
  %11 = getelementptr inbounds i32, i32* %vbtable4, i32 1
  %vbase_offs5 = load i32, i32* %11, align 4
  %12 = add nsw i32 0, %vbase_offs5
  %13 = bitcast %"class.std::basic_ostream"* %8 to i8*
  %add.ptr6 = getelementptr inbounds i8, i8* %13, i32 %12
  %14 = bitcast i8* %add.ptr6 to %"class.std::ios_base"*
  %call7 = call x86_thiscallcc i64 @"\01?width@ios_base@std@@QBE_JXZ"(%"class.std::ios_base"* %14)
  %sub = sub nsw i64 %call7, 1
  br label %cond.end

cond.end:                                         ; preds = %cond.false, %cond.true
  %cond = phi i64 [ 0, %cond.true ], [ %sub, %cond.false ]
  store i64 %cond, i64* %_Pad, align 8
  %15 = load %"class.std::basic_ostream"*, %"class.std::basic_ostream"** %_Ostr.addr, align 4
  %16 = bitcast %"class.std::basic_ostream"* %15 to i8*
  %vbptr8 = getelementptr inbounds i8, i8* %16, i32 0
  %17 = bitcast i8* %vbptr8 to i32**
  %vbtable9 = load i32*, i32** %17, align 8
  %18 = getelementptr inbounds i32, i32* %vbtable9, i32 1
  %vbase_offs10 = load i32, i32* %18, align 4
  %19 = add nsw i32 0, %vbase_offs10
  %20 = bitcast %"class.std::basic_ostream"* %15 to i8*
  %add.ptr11 = getelementptr inbounds i8, i8* %20, i32 %19
  %21 = bitcast i8* %add.ptr11 to %"class.std::ios_base"*
  %call12 = call x86_thiscallcc i32 @"\01?flags@ios_base@std@@QBEHXZ"(%"class.std::ios_base"* %21)
  %and = and i32 %call12, 448
  %cmp13 = icmp ne i32 %and, 64
  br i1 %cmp13, label %if.then14, label %if.end32

if.then14:                                        ; preds = %cond.end
  br label %for.cond

for.cond:                                         ; preds = %for.inc, %if.then14
  %22 = load i32, i32* %_State, align 4
  %cmp15 = icmp eq i32 %22, 0
  br i1 %cmp15, label %land.rhs, label %land.end

land.rhs:                                         ; preds = %for.cond
  %23 = load i64, i64* %_Pad, align 8
  %cmp16 = icmp slt i64 0, %23
  br label %land.end

land.end:                                         ; preds = %land.rhs, %for.cond
  %24 = phi i1 [ false, %for.cond ], [ %cmp16, %land.rhs ]
  br i1 %24, label %for.body, label %for.end

for.body:                                         ; preds = %land.end
  %25 = load %"class.std::basic_ostream"*, %"class.std::basic_ostream"** %_Ostr.addr, align 4
  %26 = bitcast %"class.std::basic_ostream"* %25 to i8*
  %vbptr17 = getelementptr inbounds i8, i8* %26, i32 0
  %27 = bitcast i8* %vbptr17 to i32**
  %vbtable18 = load i32*, i32** %27, align 8
  %28 = getelementptr inbounds i32, i32* %vbtable18, i32 1
  %vbase_offs19 = load i32, i32* %28, align 4
  %29 = add nsw i32 0, %vbase_offs19
  %30 = bitcast %"class.std::basic_ostream"* %25 to i8*
  %add.ptr20 = getelementptr inbounds i8, i8* %30, i32 %29
  %31 = bitcast i8* %add.ptr20 to %"class.std::basic_ios"*
  %call21 = call x86_thiscallcc %"class.std::basic_streambuf"* @"\01?rdbuf@?$basic_ios@DU?$char_traits@D@std@@@std@@QBEPAV?$basic_streambuf@DU?$char_traits@D@std@@@2@XZ"(%"class.std::basic_ios"* %31)
  %32 = load %"class.std::basic_ostream"*, %"class.std::basic_ostream"** %_Ostr.addr, align 4
  %33 = bitcast %"class.std::basic_ostream"* %32 to i8*
  %vbptr22 = getelementptr inbounds i8, i8* %33, i32 0
  %34 = bitcast i8* %vbptr22 to i32**
  %vbtable23 = load i32*, i32** %34, align 8
  %35 = getelementptr inbounds i32, i32* %vbtable23, i32 1
  %vbase_offs24 = load i32, i32* %35, align 4
  %36 = add nsw i32 0, %vbase_offs24
  %37 = bitcast %"class.std::basic_ostream"* %32 to i8*
  %add.ptr25 = getelementptr inbounds i8, i8* %37, i32 %36
  %38 = bitcast i8* %add.ptr25 to %"class.std::basic_ios"*
  %call26 = call x86_thiscallcc signext i8 @"\01?fill@?$basic_ios@DU?$char_traits@D@std@@@std@@QBEDXZ"(%"class.std::basic_ios"* %38)
  %call27 = call x86_thiscallcc i32 @"\01?sputc@?$basic_streambuf@DU?$char_traits@D@std@@@std@@QAEHD@Z"(%"class.std::basic_streambuf"* %call21, i8 signext %call26)
  store i32 %call27, i32* %ref.tmp, align 4
  %call29 = call i32 @"\01?eof@?$char_traits@D@std@@SAHXZ"() #9
  store i32 %call29, i32* %ref.tmp28, align 4
  %call30 = call zeroext i1 @"\01?eq_int_type@?$char_traits@D@std@@SA_NABH0@Z"(i32* dereferenceable(4) %ref.tmp28, i32* dereferenceable(4) %ref.tmp) #9
  br i1 %call30, label %if.then31, label %if.end

if.then31:                                        ; preds = %for.body
  %39 = load i32, i32* %_State, align 4
  %or = or i32 %39, 4
  store i32 %or, i32* %_State, align 4
  br label %if.end

if.end:                                           ; preds = %if.then31, %for.body
  br label %for.inc

for.inc:                                          ; preds = %if.end
  %40 = load i64, i64* %_Pad, align 8
  %dec = add nsw i64 %40, -1
  store i64 %dec, i64* %_Pad, align 8
  br label %for.cond

for.end:                                          ; preds = %land.end
  br label %if.end32

if.end32:                                         ; preds = %for.end, %cond.end
  %41 = load i32, i32* %_State, align 4
  %cmp33 = icmp eq i32 %41, 0
  br i1 %cmp33, label %land.lhs.true, label %if.end46

land.lhs.true:                                    ; preds = %if.end32
  %42 = load %"class.std::basic_ostream"*, %"class.std::basic_ostream"** %_Ostr.addr, align 4
  %43 = bitcast %"class.std::basic_ostream"* %42 to i8*
  %vbptr35 = getelementptr inbounds i8, i8* %43, i32 0
  %44 = bitcast i8* %vbptr35 to i32**
  %vbtable36 = load i32*, i32** %44, align 8
  %45 = getelementptr inbounds i32, i32* %vbtable36, i32 1
  %vbase_offs37 = load i32, i32* %45, align 4
  %46 = add nsw i32 0, %vbase_offs37
  %47 = bitcast %"class.std::basic_ostream"* %42 to i8*
  %add.ptr38 = getelementptr inbounds i8, i8* %47, i32 %46
  %48 = bitcast i8* %add.ptr38 to %"class.std::basic_ios"*
  %call39 = call x86_thiscallcc %"class.std::basic_streambuf"* @"\01?rdbuf@?$basic_ios@DU?$char_traits@D@std@@@std@@QBEPAV?$basic_streambuf@DU?$char_traits@D@std@@@2@XZ"(%"class.std::basic_ios"* %48)
  %49 = load i8, i8* %_Ch.addr, align 1
  %call40 = call x86_thiscallcc i32 @"\01?sputc@?$basic_streambuf@DU?$char_traits@D@std@@@std@@QAEHD@Z"(%"class.std::basic_streambuf"* %call39, i8 signext %49)
  store i32 %call40, i32* %ref.tmp34, align 4
  %call42 = call i32 @"\01?eof@?$char_traits@D@std@@SAHXZ"() #9
  store i32 %call42, i32* %ref.tmp41, align 4
  %call43 = call zeroext i1 @"\01?eq_int_type@?$char_traits@D@std@@SA_NABH0@Z"(i32* dereferenceable(4) %ref.tmp41, i32* dereferenceable(4) %ref.tmp34) #9
  br i1 %call43, label %if.then44, label %if.end46

if.then44:                                        ; preds = %land.lhs.true
  %50 = load i32, i32* %_State, align 4
  %or45 = or i32 %50, 4
  store i32 %or45, i32* %_State, align 4
  br label %if.end46

if.end46:                                         ; preds = %if.then44, %land.lhs.true, %if.end32
  br label %for.cond47

for.cond47:                                       ; preds = %for.inc71, %if.end46
  %51 = load i32, i32* %_State, align 4
  %cmp48 = icmp eq i32 %51, 0
  br i1 %cmp48, label %land.rhs49, label %land.end51

land.rhs49:                                       ; preds = %for.cond47
  %52 = load i64, i64* %_Pad, align 8
  %cmp50 = icmp slt i64 0, %52
  br label %land.end51

land.end51:                                       ; preds = %land.rhs49, %for.cond47
  %53 = phi i1 [ false, %for.cond47 ], [ %cmp50, %land.rhs49 ]
  br i1 %53, label %for.body52, label %for.end73

for.body52:                                       ; preds = %land.end51
  %54 = load %"class.std::basic_ostream"*, %"class.std::basic_ostream"** %_Ostr.addr, align 4
  %55 = bitcast %"class.std::basic_ostream"* %54 to i8*
  %vbptr54 = getelementptr inbounds i8, i8* %55, i32 0
  %56 = bitcast i8* %vbptr54 to i32**
  %vbtable55 = load i32*, i32** %56, align 8
  %57 = getelementptr inbounds i32, i32* %vbtable55, i32 1
  %vbase_offs56 = load i32, i32* %57, align 4
  %58 = add nsw i32 0, %vbase_offs56
  %59 = bitcast %"class.std::basic_ostream"* %54 to i8*
  %add.ptr57 = getelementptr inbounds i8, i8* %59, i32 %58
  %60 = bitcast i8* %add.ptr57 to %"class.std::basic_ios"*
  %call58 = call x86_thiscallcc %"class.std::basic_streambuf"* @"\01?rdbuf@?$basic_ios@DU?$char_traits@D@std@@@std@@QBEPAV?$basic_streambuf@DU?$char_traits@D@std@@@2@XZ"(%"class.std::basic_ios"* %60)
  %61 = load %"class.std::basic_ostream"*, %"class.std::basic_ostream"** %_Ostr.addr, align 4
  %62 = bitcast %"class.std::basic_ostream"* %61 to i8*
  %vbptr59 = getelementptr inbounds i8, i8* %62, i32 0
  %63 = bitcast i8* %vbptr59 to i32**
  %vbtable60 = load i32*, i32** %63, align 8
  %64 = getelementptr inbounds i32, i32* %vbtable60, i32 1
  %vbase_offs61 = load i32, i32* %64, align 4
  %65 = add nsw i32 0, %vbase_offs61
  %66 = bitcast %"class.std::basic_ostream"* %61 to i8*
  %add.ptr62 = getelementptr inbounds i8, i8* %66, i32 %65
  %67 = bitcast i8* %add.ptr62 to %"class.std::basic_ios"*
  %call63 = call x86_thiscallcc signext i8 @"\01?fill@?$basic_ios@DU?$char_traits@D@std@@@std@@QBEDXZ"(%"class.std::basic_ios"* %67)
  %call64 = call x86_thiscallcc i32 @"\01?sputc@?$basic_streambuf@DU?$char_traits@D@std@@@std@@QAEHD@Z"(%"class.std::basic_streambuf"* %call58, i8 signext %call63)
  store i32 %call64, i32* %ref.tmp53, align 4
  %call66 = call i32 @"\01?eof@?$char_traits@D@std@@SAHXZ"() #9
  store i32 %call66, i32* %ref.tmp65, align 4
  %call67 = call zeroext i1 @"\01?eq_int_type@?$char_traits@D@std@@SA_NABH0@Z"(i32* dereferenceable(4) %ref.tmp65, i32* dereferenceable(4) %ref.tmp53) #9
  br i1 %call67, label %if.then68, label %if.end70

if.then68:                                        ; preds = %for.body52
  %68 = load i32, i32* %_State, align 4
  %or69 = or i32 %68, 4
  store i32 %or69, i32* %_State, align 4
  br label %if.end70

if.end70:                                         ; preds = %if.then68, %for.body52
  br label %for.inc71

for.inc71:                                        ; preds = %if.end70
  %69 = load i64, i64* %_Pad, align 8
  %dec72 = add nsw i64 %69, -1
  store i64 %dec72, i64* %_Pad, align 8
  br label %for.cond47

for.end73:                                        ; preds = %land.end51
  br label %if.end74

if.end74:                                         ; preds = %for.end73, %entry
  %70 = load %"class.std::basic_ostream"*, %"class.std::basic_ostream"** %_Ostr.addr, align 4
  %71 = bitcast %"class.std::basic_ostream"* %70 to i8*
  %vbptr75 = getelementptr inbounds i8, i8* %71, i32 0
  %72 = bitcast i8* %vbptr75 to i32**
  %vbtable76 = load i32*, i32** %72, align 8
  %73 = getelementptr inbounds i32, i32* %vbtable76, i32 1
  %vbase_offs77 = load i32, i32* %73, align 4
  %74 = add nsw i32 0, %vbase_offs77
  %75 = bitcast %"class.std::basic_ostream"* %70 to i8*
  %add.ptr78 = getelementptr inbounds i8, i8* %75, i32 %74
  %76 = bitcast i8* %add.ptr78 to %"class.std::ios_base"*
  %call79 = call x86_thiscallcc i64 @"\01?width@ios_base@std@@QAE_J_J@Z"(%"class.std::ios_base"* %76, i64 0)
  %77 = load %"class.std::basic_ostream"*, %"class.std::basic_ostream"** %_Ostr.addr, align 4
  %78 = bitcast %"class.std::basic_ostream"* %77 to i8*
  %vbptr80 = getelementptr inbounds i8, i8* %78, i32 0
  %79 = bitcast i8* %vbptr80 to i32**
  %vbtable81 = load i32*, i32** %79, align 8
  %80 = getelementptr inbounds i32, i32* %vbtable81, i32 1
  %vbase_offs82 = load i32, i32* %80, align 4
  %81 = add nsw i32 0, %vbase_offs82
  %82 = bitcast %"class.std::basic_ostream"* %77 to i8*
  %add.ptr83 = getelementptr inbounds i8, i8* %82, i32 %81
  %83 = bitcast i8* %add.ptr83 to %"class.std::basic_ios"*
  %84 = load i32, i32* %_State, align 4
  call x86_thiscallcc void @"\01?setstate@?$basic_ios@DU?$char_traits@D@std@@@std@@QAEXH_N@Z"(%"class.std::basic_ios"* %83, i32 %84, i1 zeroext false)
  %85 = load %"class.std::basic_ostream"*, %"class.std::basic_ostream"** %_Ostr.addr, align 4
  call x86_thiscallcc void @"\01??1sentry@?$basic_ostream@DU?$char_traits@D@std@@@std@@QAE@XZ"(%"class.std::basic_ostream<char, std::char_traits<char> >::sentry"* %_Ok) #9
  ret %"class.std::basic_ostream"* %85
}

; Function Attrs: inlinehint nounwind
define linkonce_odr dereferenceable(80) %"class.std::basic_ostream"* @"\01??$?6U?$char_traits@D@std@@@std@@YAAAV?$basic_ostream@DU?$char_traits@D@std@@@0@AAV10@PBD@Z"(%"class.std::basic_ostream"* dereferenceable(80) %_Ostr, i8* %_Val) #2 comdat {
entry:
  %_Val.addr = alloca i8*, align 4
  %_Ostr.addr = alloca %"class.std::basic_ostream"*, align 4
  %_State = alloca i32, align 4
  %_Count = alloca i64, align 8
  %_Pad = alloca i64, align 8
  %_Ok = alloca %"class.std::basic_ostream<char, std::char_traits<char> >::sentry", align 4
  %ref.tmp = alloca i32, align 4
  %ref.tmp34 = alloca i32, align 4
  %ref.tmp56 = alloca i32, align 4
  %ref.tmp68 = alloca i32, align 4
  store i8* %_Val, i8** %_Val.addr, align 4
  store %"class.std::basic_ostream"* %_Ostr, %"class.std::basic_ostream"** %_Ostr.addr, align 4
  store i32 0, i32* %_State, align 4
  %0 = load i8*, i8** %_Val.addr, align 4
  %call = call i32 @"\01?length@?$char_traits@D@std@@SAIPBD@Z"(i8* %0)
  %conv = zext i32 %call to i64
  store i64 %conv, i64* %_Count, align 8
  %1 = load %"class.std::basic_ostream"*, %"class.std::basic_ostream"** %_Ostr.addr, align 4
  %2 = bitcast %"class.std::basic_ostream"* %1 to i8*
  %vbptr = getelementptr inbounds i8, i8* %2, i32 0
  %3 = bitcast i8* %vbptr to i32**
  %vbtable = load i32*, i32** %3, align 8
  %4 = getelementptr inbounds i32, i32* %vbtable, i32 1
  %vbase_offs = load i32, i32* %4, align 4
  %5 = add nsw i32 0, %vbase_offs
  %6 = bitcast %"class.std::basic_ostream"* %1 to i8*
  %add.ptr = getelementptr inbounds i8, i8* %6, i32 %5
  %7 = bitcast i8* %add.ptr to %"class.std::ios_base"*
  %call1 = call x86_thiscallcc i64 @"\01?width@ios_base@std@@QBE_JXZ"(%"class.std::ios_base"* %7)
  %cmp = icmp sle i64 %call1, 0
  br i1 %cmp, label %cond.true, label %lor.lhs.false

lor.lhs.false:                                    ; preds = %entry
  %8 = load %"class.std::basic_ostream"*, %"class.std::basic_ostream"** %_Ostr.addr, align 4
  %9 = bitcast %"class.std::basic_ostream"* %8 to i8*
  %vbptr2 = getelementptr inbounds i8, i8* %9, i32 0
  %10 = bitcast i8* %vbptr2 to i32**
  %vbtable3 = load i32*, i32** %10, align 8
  %11 = getelementptr inbounds i32, i32* %vbtable3, i32 1
  %vbase_offs4 = load i32, i32* %11, align 4
  %12 = add nsw i32 0, %vbase_offs4
  %13 = bitcast %"class.std::basic_ostream"* %8 to i8*
  %add.ptr5 = getelementptr inbounds i8, i8* %13, i32 %12
  %14 = bitcast i8* %add.ptr5 to %"class.std::ios_base"*
  %call6 = call x86_thiscallcc i64 @"\01?width@ios_base@std@@QBE_JXZ"(%"class.std::ios_base"* %14)
  %15 = load i64, i64* %_Count, align 8
  %cmp7 = icmp sle i64 %call6, %15
  br i1 %cmp7, label %cond.true, label %cond.false

cond.true:                                        ; preds = %lor.lhs.false, %entry
  br label %cond.end

cond.false:                                       ; preds = %lor.lhs.false
  %16 = load %"class.std::basic_ostream"*, %"class.std::basic_ostream"** %_Ostr.addr, align 4
  %17 = bitcast %"class.std::basic_ostream"* %16 to i8*
  %vbptr8 = getelementptr inbounds i8, i8* %17, i32 0
  %18 = bitcast i8* %vbptr8 to i32**
  %vbtable9 = load i32*, i32** %18, align 8
  %19 = getelementptr inbounds i32, i32* %vbtable9, i32 1
  %vbase_offs10 = load i32, i32* %19, align 4
  %20 = add nsw i32 0, %vbase_offs10
  %21 = bitcast %"class.std::basic_ostream"* %16 to i8*
  %add.ptr11 = getelementptr inbounds i8, i8* %21, i32 %20
  %22 = bitcast i8* %add.ptr11 to %"class.std::ios_base"*
  %call12 = call x86_thiscallcc i64 @"\01?width@ios_base@std@@QBE_JXZ"(%"class.std::ios_base"* %22)
  %23 = load i64, i64* %_Count, align 8
  %sub = sub nsw i64 %call12, %23
  br label %cond.end

cond.end:                                         ; preds = %cond.false, %cond.true
  %cond = phi i64 [ 0, %cond.true ], [ %sub, %cond.false ]
  store i64 %cond, i64* %_Pad, align 8
  %24 = load %"class.std::basic_ostream"*, %"class.std::basic_ostream"** %_Ostr.addr, align 4
  %call13 = call x86_thiscallcc %"class.std::basic_ostream<char, std::char_traits<char> >::sentry"* @"\01??0sentry@?$basic_ostream@DU?$char_traits@D@std@@@std@@QAE@AAV12@@Z"(%"class.std::basic_ostream<char, std::char_traits<char> >::sentry"* %_Ok, %"class.std::basic_ostream"* dereferenceable(80) %24)
  %call14 = call x86_thiscallcc zeroext i1 @"\01??Bsentry@?$basic_ostream@DU?$char_traits@D@std@@@std@@QBE_NXZ"(%"class.std::basic_ostream<char, std::char_traits<char> >::sentry"* %_Ok)
  br i1 %call14, label %if.else, label %if.then

if.then:                                          ; preds = %cond.end
  %25 = load i32, i32* %_State, align 4
  %or = or i32 %25, 4
  store i32 %or, i32* %_State, align 4
  br label %if.end83

if.else:                                          ; preds = %cond.end
  %26 = load %"class.std::basic_ostream"*, %"class.std::basic_ostream"** %_Ostr.addr, align 4
  %27 = bitcast %"class.std::basic_ostream"* %26 to i8*
  %vbptr15 = getelementptr inbounds i8, i8* %27, i32 0
  %28 = bitcast i8* %vbptr15 to i32**
  %vbtable16 = load i32*, i32** %28, align 8
  %29 = getelementptr inbounds i32, i32* %vbtable16, i32 1
  %vbase_offs17 = load i32, i32* %29, align 4
  %30 = add nsw i32 0, %vbase_offs17
  %31 = bitcast %"class.std::basic_ostream"* %26 to i8*
  %add.ptr18 = getelementptr inbounds i8, i8* %31, i32 %30
  %32 = bitcast i8* %add.ptr18 to %"class.std::ios_base"*
  %call19 = call x86_thiscallcc i32 @"\01?flags@ios_base@std@@QBEHXZ"(%"class.std::ios_base"* %32)
  %and = and i32 %call19, 448
  %cmp20 = icmp ne i32 %and, 64
  br i1 %cmp20, label %if.then21, label %if.end39

if.then21:                                        ; preds = %if.else
  br label %for.cond

for.cond:                                         ; preds = %for.inc, %if.then21
  %33 = load i64, i64* %_Pad, align 8
  %cmp22 = icmp slt i64 0, %33
  br i1 %cmp22, label %for.body, label %for.end

for.body:                                         ; preds = %for.cond
  %34 = load %"class.std::basic_ostream"*, %"class.std::basic_ostream"** %_Ostr.addr, align 4
  %35 = bitcast %"class.std::basic_ostream"* %34 to i8*
  %vbptr23 = getelementptr inbounds i8, i8* %35, i32 0
  %36 = bitcast i8* %vbptr23 to i32**
  %vbtable24 = load i32*, i32** %36, align 8
  %37 = getelementptr inbounds i32, i32* %vbtable24, i32 1
  %vbase_offs25 = load i32, i32* %37, align 4
  %38 = add nsw i32 0, %vbase_offs25
  %39 = bitcast %"class.std::basic_ostream"* %34 to i8*
  %add.ptr26 = getelementptr inbounds i8, i8* %39, i32 %38
  %40 = bitcast i8* %add.ptr26 to %"class.std::basic_ios"*
  %call27 = call x86_thiscallcc %"class.std::basic_streambuf"* @"\01?rdbuf@?$basic_ios@DU?$char_traits@D@std@@@std@@QBEPAV?$basic_streambuf@DU?$char_traits@D@std@@@2@XZ"(%"class.std::basic_ios"* %40)
  %41 = load %"class.std::basic_ostream"*, %"class.std::basic_ostream"** %_Ostr.addr, align 4
  %42 = bitcast %"class.std::basic_ostream"* %41 to i8*
  %vbptr28 = getelementptr inbounds i8, i8* %42, i32 0
  %43 = bitcast i8* %vbptr28 to i32**
  %vbtable29 = load i32*, i32** %43, align 8
  %44 = getelementptr inbounds i32, i32* %vbtable29, i32 1
  %vbase_offs30 = load i32, i32* %44, align 4
  %45 = add nsw i32 0, %vbase_offs30
  %46 = bitcast %"class.std::basic_ostream"* %41 to i8*
  %add.ptr31 = getelementptr inbounds i8, i8* %46, i32 %45
  %47 = bitcast i8* %add.ptr31 to %"class.std::basic_ios"*
  %call32 = call x86_thiscallcc signext i8 @"\01?fill@?$basic_ios@DU?$char_traits@D@std@@@std@@QBEDXZ"(%"class.std::basic_ios"* %47)
  %call33 = call x86_thiscallcc i32 @"\01?sputc@?$basic_streambuf@DU?$char_traits@D@std@@@std@@QAEHD@Z"(%"class.std::basic_streambuf"* %call27, i8 signext %call32)
  store i32 %call33, i32* %ref.tmp, align 4
  %call35 = call i32 @"\01?eof@?$char_traits@D@std@@SAHXZ"() #9
  store i32 %call35, i32* %ref.tmp34, align 4
  %call36 = call zeroext i1 @"\01?eq_int_type@?$char_traits@D@std@@SA_NABH0@Z"(i32* dereferenceable(4) %ref.tmp34, i32* dereferenceable(4) %ref.tmp) #9
  br i1 %call36, label %if.then37, label %if.end

if.then37:                                        ; preds = %for.body
  %48 = load i32, i32* %_State, align 4
  %or38 = or i32 %48, 4
  store i32 %or38, i32* %_State, align 4
  br label %for.end

if.end:                                           ; preds = %for.body
  br label %for.inc

for.inc:                                          ; preds = %if.end
  %49 = load i64, i64* %_Pad, align 8
  %dec = add nsw i64 %49, -1
  store i64 %dec, i64* %_Pad, align 8
  br label %for.cond

for.end:                                          ; preds = %if.then37, %for.cond
  br label %if.end39

if.end39:                                         ; preds = %for.end, %if.else
  %50 = load i32, i32* %_State, align 4
  %cmp40 = icmp eq i32 %50, 0
  br i1 %cmp40, label %land.lhs.true, label %if.end50

land.lhs.true:                                    ; preds = %if.end39
  %51 = load %"class.std::basic_ostream"*, %"class.std::basic_ostream"** %_Ostr.addr, align 4
  %52 = bitcast %"class.std::basic_ostream"* %51 to i8*
  %vbptr41 = getelementptr inbounds i8, i8* %52, i32 0
  %53 = bitcast i8* %vbptr41 to i32**
  %vbtable42 = load i32*, i32** %53, align 8
  %54 = getelementptr inbounds i32, i32* %vbtable42, i32 1
  %vbase_offs43 = load i32, i32* %54, align 4
  %55 = add nsw i32 0, %vbase_offs43
  %56 = bitcast %"class.std::basic_ostream"* %51 to i8*
  %add.ptr44 = getelementptr inbounds i8, i8* %56, i32 %55
  %57 = bitcast i8* %add.ptr44 to %"class.std::basic_ios"*
  %call45 = call x86_thiscallcc %"class.std::basic_streambuf"* @"\01?rdbuf@?$basic_ios@DU?$char_traits@D@std@@@std@@QBEPAV?$basic_streambuf@DU?$char_traits@D@std@@@2@XZ"(%"class.std::basic_ios"* %57)
  %58 = load i64, i64* %_Count, align 8
  %59 = load i8*, i8** %_Val.addr, align 4
  %call46 = call x86_thiscallcc i64 @"\01?sputn@?$basic_streambuf@DU?$char_traits@D@std@@@std@@QAE_JPBD_J@Z"(%"class.std::basic_streambuf"* %call45, i8* %59, i64 %58)
  %60 = load i64, i64* %_Count, align 8
  %cmp47 = icmp ne i64 %call46, %60
  br i1 %cmp47, label %if.then48, label %if.end50

if.then48:                                        ; preds = %land.lhs.true
  %61 = load i32, i32* %_State, align 4
  %or49 = or i32 %61, 4
  store i32 %or49, i32* %_State, align 4
  br label %if.end50

if.end50:                                         ; preds = %if.then48, %land.lhs.true, %if.end39
  %62 = load i32, i32* %_State, align 4
  %cmp51 = icmp eq i32 %62, 0
  br i1 %cmp51, label %if.then52, label %if.end77

if.then52:                                        ; preds = %if.end50
  br label %for.cond53

for.cond53:                                       ; preds = %for.inc74, %if.then52
  %63 = load i64, i64* %_Pad, align 8
  %cmp54 = icmp slt i64 0, %63
  br i1 %cmp54, label %for.body55, label %for.end76

for.body55:                                       ; preds = %for.cond53
  %64 = load %"class.std::basic_ostream"*, %"class.std::basic_ostream"** %_Ostr.addr, align 4
  %65 = bitcast %"class.std::basic_ostream"* %64 to i8*
  %vbptr57 = getelementptr inbounds i8, i8* %65, i32 0
  %66 = bitcast i8* %vbptr57 to i32**
  %vbtable58 = load i32*, i32** %66, align 8
  %67 = getelementptr inbounds i32, i32* %vbtable58, i32 1
  %vbase_offs59 = load i32, i32* %67, align 4
  %68 = add nsw i32 0, %vbase_offs59
  %69 = bitcast %"class.std::basic_ostream"* %64 to i8*
  %add.ptr60 = getelementptr inbounds i8, i8* %69, i32 %68
  %70 = bitcast i8* %add.ptr60 to %"class.std::basic_ios"*
  %call61 = call x86_thiscallcc %"class.std::basic_streambuf"* @"\01?rdbuf@?$basic_ios@DU?$char_traits@D@std@@@std@@QBEPAV?$basic_streambuf@DU?$char_traits@D@std@@@2@XZ"(%"class.std::basic_ios"* %70)
  %71 = load %"class.std::basic_ostream"*, %"class.std::basic_ostream"** %_Ostr.addr, align 4
  %72 = bitcast %"class.std::basic_ostream"* %71 to i8*
  %vbptr62 = getelementptr inbounds i8, i8* %72, i32 0
  %73 = bitcast i8* %vbptr62 to i32**
  %vbtable63 = load i32*, i32** %73, align 8
  %74 = getelementptr inbounds i32, i32* %vbtable63, i32 1
  %vbase_offs64 = load i32, i32* %74, align 4
  %75 = add nsw i32 0, %vbase_offs64
  %76 = bitcast %"class.std::basic_ostream"* %71 to i8*
  %add.ptr65 = getelementptr inbounds i8, i8* %76, i32 %75
  %77 = bitcast i8* %add.ptr65 to %"class.std::basic_ios"*
  %call66 = call x86_thiscallcc signext i8 @"\01?fill@?$basic_ios@DU?$char_traits@D@std@@@std@@QBEDXZ"(%"class.std::basic_ios"* %77)
  %call67 = call x86_thiscallcc i32 @"\01?sputc@?$basic_streambuf@DU?$char_traits@D@std@@@std@@QAEHD@Z"(%"class.std::basic_streambuf"* %call61, i8 signext %call66)
  store i32 %call67, i32* %ref.tmp56, align 4
  %call69 = call i32 @"\01?eof@?$char_traits@D@std@@SAHXZ"() #9
  store i32 %call69, i32* %ref.tmp68, align 4
  %call70 = call zeroext i1 @"\01?eq_int_type@?$char_traits@D@std@@SA_NABH0@Z"(i32* dereferenceable(4) %ref.tmp68, i32* dereferenceable(4) %ref.tmp56) #9
  br i1 %call70, label %if.then71, label %if.end73

if.then71:                                        ; preds = %for.body55
  %78 = load i32, i32* %_State, align 4
  %or72 = or i32 %78, 4
  store i32 %or72, i32* %_State, align 4
  br label %for.end76

if.end73:                                         ; preds = %for.body55
  br label %for.inc74

for.inc74:                                        ; preds = %if.end73
  %79 = load i64, i64* %_Pad, align 8
  %dec75 = add nsw i64 %79, -1
  store i64 %dec75, i64* %_Pad, align 8
  br label %for.cond53

for.end76:                                        ; preds = %if.then71, %for.cond53
  br label %if.end77

if.end77:                                         ; preds = %for.end76, %if.end50
  %80 = load %"class.std::basic_ostream"*, %"class.std::basic_ostream"** %_Ostr.addr, align 4
  %81 = bitcast %"class.std::basic_ostream"* %80 to i8*
  %vbptr78 = getelementptr inbounds i8, i8* %81, i32 0
  %82 = bitcast i8* %vbptr78 to i32**
  %vbtable79 = load i32*, i32** %82, align 8
  %83 = getelementptr inbounds i32, i32* %vbtable79, i32 1
  %vbase_offs80 = load i32, i32* %83, align 4
  %84 = add nsw i32 0, %vbase_offs80
  %85 = bitcast %"class.std::basic_ostream"* %80 to i8*
  %add.ptr81 = getelementptr inbounds i8, i8* %85, i32 %84
  %86 = bitcast i8* %add.ptr81 to %"class.std::ios_base"*
  %call82 = call x86_thiscallcc i64 @"\01?width@ios_base@std@@QAE_J_J@Z"(%"class.std::ios_base"* %86, i64 0)
  br label %if.end83

if.end83:                                         ; preds = %if.end77, %if.then
  %87 = load %"class.std::basic_ostream"*, %"class.std::basic_ostream"** %_Ostr.addr, align 4
  %88 = bitcast %"class.std::basic_ostream"* %87 to i8*
  %vbptr84 = getelementptr inbounds i8, i8* %88, i32 0
  %89 = bitcast i8* %vbptr84 to i32**
  %vbtable85 = load i32*, i32** %89, align 8
  %90 = getelementptr inbounds i32, i32* %vbtable85, i32 1
  %vbase_offs86 = load i32, i32* %90, align 4
  %91 = add nsw i32 0, %vbase_offs86
  %92 = bitcast %"class.std::basic_ostream"* %87 to i8*
  %add.ptr87 = getelementptr inbounds i8, i8* %92, i32 %91
  %93 = bitcast i8* %add.ptr87 to %"class.std::basic_ios"*
  %94 = load i32, i32* %_State, align 4
  call x86_thiscallcc void @"\01?setstate@?$basic_ios@DU?$char_traits@D@std@@@std@@QAEXH_N@Z"(%"class.std::basic_ios"* %93, i32 %94, i1 zeroext false)
  %95 = load %"class.std::basic_ostream"*, %"class.std::basic_ostream"** %_Ostr.addr, align 4
  call x86_thiscallcc void @"\01??1sentry@?$basic_ostream@DU?$char_traits@D@std@@@std@@QAE@XZ"(%"class.std::basic_ostream<char, std::char_traits<char> >::sentry"* %_Ok) #9
  ret %"class.std::basic_ostream"* %95
}

; Function Attrs: nounwind
define i32 @"\01?get_index@@YAHD@Z"(i8 signext %c) #0 {
entry:
  %c.addr = alloca i8, align 1
  %i = alloca i32, align 4
  store i8 %c, i8* %c.addr, align 1
  store i32 0, i32* %i, align 4
  br label %for.cond

for.cond:                                         ; preds = %for.inc, %entry
  %0 = load i32, i32* %i, align 4
  %cmp = icmp slt i32 %0, 7
  br i1 %cmp, label %for.body, label %for.end

for.body:                                         ; preds = %for.cond
  %1 = load i8, i8* %c.addr, align 1
  %conv = sext i8 %1 to i32
  %2 = load i32, i32* %i, align 4
  %arrayidx = getelementptr inbounds [7 x i8], [7 x i8]* @"\01?cur_op@@3PADA", i32 0, i32 %2
  %3 = load i8, i8* %arrayidx, align 1
  %conv1 = sext i8 %3 to i32
  %cmp2 = icmp eq i32 %conv, %conv1
  br i1 %cmp2, label %if.then, label %lor.lhs.false

lor.lhs.false:                                    ; preds = %for.body
  %4 = load i8, i8* %c.addr, align 1
  %conv3 = sext i8 %4 to i32
  %5 = load i32, i32* %i, align 4
  %arrayidx4 = getelementptr inbounds [7 x i8], [7 x i8]* @"\01?stack_op@@3PADA", i32 0, i32 %5
  %6 = load i8, i8* %arrayidx4, align 1
  %conv5 = sext i8 %6 to i32
  %cmp6 = icmp eq i32 %conv3, %conv5
  br i1 %cmp6, label %if.then, label %if.end

if.then:                                          ; preds = %lor.lhs.false, %for.body
  br label %for.end

if.end:                                           ; preds = %lor.lhs.false
  br label %for.inc

for.inc:                                          ; preds = %if.end
  %7 = load i32, i32* %i, align 4
  %inc = add nsw i32 %7, 1
  store i32 %inc, i32* %i, align 4
  br label %for.cond

for.end:                                          ; preds = %if.then, %for.cond
  %8 = load i32, i32* %i, align 4
  ret i32 %8
}

; Function Attrs: nounwind
define linkonce_odr x86_thiscallcc dereferenceable(80) %"class.std::basic_ostream"* @"\01??6?$basic_ostream@DU?$char_traits@D@std@@@std@@QAEAAV01@P6AAAV01@AAV01@@Z@Z"(%"class.std::basic_ostream"* %this, %"class.std::basic_ostream"* (%"class.std::basic_ostream"*)* %_Pfn) #0 comdat align 2 {
entry:
  %_Pfn.addr = alloca %"class.std::basic_ostream"* (%"class.std::basic_ostream"*)*, align 4
  %this.addr = alloca %"class.std::basic_ostream"*, align 4
  store %"class.std::basic_ostream"* (%"class.std::basic_ostream"*)* %_Pfn, %"class.std::basic_ostream"* (%"class.std::basic_ostream"*)** %_Pfn.addr, align 4
  store %"class.std::basic_ostream"* %this, %"class.std::basic_ostream"** %this.addr, align 4
  %this1 = load %"class.std::basic_ostream"*, %"class.std::basic_ostream"** %this.addr, align 4
  %0 = load %"class.std::basic_ostream"* (%"class.std::basic_ostream"*)*, %"class.std::basic_ostream"* (%"class.std::basic_ostream"*)** %_Pfn.addr, align 4
  %call = call dereferenceable(80) %"class.std::basic_ostream"* %0(%"class.std::basic_ostream"* dereferenceable(80) %this1)
  ret %"class.std::basic_ostream"* %call
}

; Function Attrs: inlinehint nounwind
define linkonce_odr dereferenceable(80) %"class.std::basic_ostream"* @"\01??$endl@DU?$char_traits@D@std@@@std@@YAAAV?$basic_ostream@DU?$char_traits@D@std@@@0@AAV10@@Z"(%"class.std::basic_ostream"* dereferenceable(80) %_Ostr) #2 comdat {
entry:
  %_Ostr.addr = alloca %"class.std::basic_ostream"*, align 4
  store %"class.std::basic_ostream"* %_Ostr, %"class.std::basic_ostream"** %_Ostr.addr, align 4
  %0 = load %"class.std::basic_ostream"*, %"class.std::basic_ostream"** %_Ostr.addr, align 4
  %1 = load %"class.std::basic_ostream"*, %"class.std::basic_ostream"** %_Ostr.addr, align 4
  %2 = bitcast %"class.std::basic_ostream"* %1 to i8*
  %vbptr = getelementptr inbounds i8, i8* %2, i32 0
  %3 = bitcast i8* %vbptr to i32**
  %vbtable = load i32*, i32** %3, align 8
  %4 = getelementptr inbounds i32, i32* %vbtable, i32 1
  %vbase_offs = load i32, i32* %4, align 4
  %5 = add nsw i32 0, %vbase_offs
  %6 = bitcast %"class.std::basic_ostream"* %1 to i8*
  %add.ptr = getelementptr inbounds i8, i8* %6, i32 %5
  %7 = bitcast i8* %add.ptr to %"class.std::basic_ios"*
  %call = call x86_thiscallcc signext i8 @"\01?widen@?$basic_ios@DU?$char_traits@D@std@@@std@@QBEDD@Z"(%"class.std::basic_ios"* %7, i8 signext 10)
  %call1 = call x86_thiscallcc dereferenceable(80) %"class.std::basic_ostream"* @"\01?put@?$basic_ostream@DU?$char_traits@D@std@@@std@@QAEAAV12@D@Z"(%"class.std::basic_ostream"* %0, i8 signext %call)
  %8 = load %"class.std::basic_ostream"*, %"class.std::basic_ostream"** %_Ostr.addr, align 4
  %call2 = call x86_thiscallcc dereferenceable(80) %"class.std::basic_ostream"* @"\01?flush@?$basic_ostream@DU?$char_traits@D@std@@@std@@QAEAAV12@XZ"(%"class.std::basic_ostream"* %8)
  %9 = load %"class.std::basic_ostream"*, %"class.std::basic_ostream"** %_Ostr.addr, align 4
  ret %"class.std::basic_ostream"* %9
}

; Function Attrs: nounwind
define void @"\01?display_AST@@YAXPAUtree@@H@Z"(%struct.tree* %start, i32 %indent) #0 {
entry:
  %indent.addr = alloca i32, align 4
  %start.addr = alloca %struct.tree*, align 4
  %ref.tmp = alloca %"struct.std::_Smanip", align 8
  store i32 %indent, i32* %indent.addr, align 4
  store %struct.tree* %start, %struct.tree** %start.addr, align 4
  %0 = load %struct.tree*, %struct.tree** %start.addr, align 4
  %cmp = icmp ne %struct.tree* %0, null
  br i1 %cmp, label %if.then, label %if.end13

if.then:                                          ; preds = %entry
  %1 = load i32, i32* %indent.addr, align 4
  %add = add nsw i32 %1, 4
  %2 = load %struct.tree*, %struct.tree** %start.addr, align 4
  %lptr = getelementptr inbounds %struct.tree, %struct.tree* %2, i32 0, i32 1
  %3 = load %struct.tree*, %struct.tree** %lptr, align 4
  call void @"\01?display_AST@@YAXPAUtree@@H@Z"(%struct.tree* %3, i32 %add)
  %4 = load i32, i32* %indent.addr, align 4
  %cmp1 = icmp sgt i32 %4, 0
  br i1 %cmp1, label %if.then2, label %if.end

if.then2:                                         ; preds = %if.then
  %5 = load i32, i32* %indent.addr, align 4
  %conv = sext i32 %5 to i64
  call void @"\01?setw@std@@YA?AU?$_Smanip@_J@1@_J@Z"(%"struct.std::_Smanip"* sret %ref.tmp, i64 %conv)
  %call = call dereferenceable(80) %"class.std::basic_ostream"* @"\01??$?6DU?$char_traits@D@std@@_J@std@@YAAAV?$basic_ostream@DU?$char_traits@D@std@@@0@AAV10@ABU?$_Smanip@_J@0@@Z"(%"class.std::basic_ostream"* dereferenceable(80) @"\01?cout@std@@3V?$basic_ostream@DU?$char_traits@D@std@@@1@A", %"struct.std::_Smanip"* dereferenceable(16) %ref.tmp)
  %call3 = call dereferenceable(80) %"class.std::basic_ostream"* @"\01??$?6U?$char_traits@D@std@@@std@@YAAAV?$basic_ostream@DU?$char_traits@D@std@@@0@AAV10@PBD@Z"(%"class.std::basic_ostream"* dereferenceable(80) %call, i8* getelementptr inbounds ([2 x i8], [2 x i8]* @"\01??_C@_01CLKCMJKC@?5?$AA@", i32 0, i32 0))
  br label %if.end

if.end:                                           ; preds = %if.then2, %if.then
  %6 = load %struct.tree*, %struct.tree** %start.addr, align 4
  %type = getelementptr inbounds %struct.tree, %struct.tree* %6, i32 0, i32 3
  %7 = load i32, i32* %type, align 4
  %cmp4 = icmp eq i32 %7, 1
  br i1 %cmp4, label %if.then5, label %if.else

if.then5:                                         ; preds = %if.end
  %8 = load %struct.tree*, %struct.tree** %start.addr, align 4
  %data = getelementptr inbounds %struct.tree, %struct.tree* %8, i32 0, i32 0
  %9 = load i32, i32* %data, align 4
  %call6 = call x86_thiscallcc dereferenceable(80) %"class.std::basic_ostream"* @"\01??6?$basic_ostream@DU?$char_traits@D@std@@@std@@QAEAAV01@H@Z"(%"class.std::basic_ostream"* @"\01?cout@std@@3V?$basic_ostream@DU?$char_traits@D@std@@@1@A", i32 %9)
  br label %if.end10

if.else:                                          ; preds = %if.end
  %10 = load %struct.tree*, %struct.tree** %start.addr, align 4
  %data7 = getelementptr inbounds %struct.tree, %struct.tree* %10, i32 0, i32 0
  %11 = load i32, i32* %data7, align 4
  %conv8 = trunc i32 %11 to i8
  %call9 = call dereferenceable(80) %"class.std::basic_ostream"* @"\01??$?6U?$char_traits@D@std@@@std@@YAAAV?$basic_ostream@DU?$char_traits@D@std@@@0@AAV10@D@Z"(%"class.std::basic_ostream"* dereferenceable(80) @"\01?cout@std@@3V?$basic_ostream@DU?$char_traits@D@std@@@1@A", i8 signext %conv8)
  br label %if.end10

if.end10:                                         ; preds = %if.else, %if.then5
  %call11 = call x86_thiscallcc dereferenceable(80) %"class.std::basic_ostream"* @"\01??6?$basic_ostream@DU?$char_traits@D@std@@@std@@QAEAAV01@P6AAAV01@AAV01@@Z@Z"(%"class.std::basic_ostream"* @"\01?cout@std@@3V?$basic_ostream@DU?$char_traits@D@std@@@1@A", %"class.std::basic_ostream"* (%"class.std::basic_ostream"*)* @"\01??$endl@DU?$char_traits@D@std@@@std@@YAAAV?$basic_ostream@DU?$char_traits@D@std@@@0@AAV10@@Z")
  %12 = load i32, i32* %indent.addr, align 4
  %add12 = add nsw i32 %12, 4
  %13 = load %struct.tree*, %struct.tree** %start.addr, align 4
  %rptr = getelementptr inbounds %struct.tree, %struct.tree* %13, i32 0, i32 2
  %14 = load %struct.tree*, %struct.tree** %rptr, align 4
  call void @"\01?display_AST@@YAXPAUtree@@H@Z"(%struct.tree* %14, i32 %add12)
  br label %if.end13

if.end13:                                         ; preds = %if.end10, %entry
  ret void
}

; Function Attrs: inlinehint nounwind
define linkonce_odr dereferenceable(80) %"class.std::basic_ostream"* @"\01??$?6DU?$char_traits@D@std@@_J@std@@YAAAV?$basic_ostream@DU?$char_traits@D@std@@@0@AAV10@ABU?$_Smanip@_J@0@@Z"(%"class.std::basic_ostream"* dereferenceable(80) %_Ostr, %"struct.std::_Smanip"* dereferenceable(16) %_Manip) #2 comdat {
entry:
  %_Manip.addr = alloca %"struct.std::_Smanip"*, align 4
  %_Ostr.addr = alloca %"class.std::basic_ostream"*, align 4
  store %"struct.std::_Smanip"* %_Manip, %"struct.std::_Smanip"** %_Manip.addr, align 4
  store %"class.std::basic_ostream"* %_Ostr, %"class.std::basic_ostream"** %_Ostr.addr, align 4
  %0 = load %"struct.std::_Smanip"*, %"struct.std::_Smanip"** %_Manip.addr, align 4
  %_Pfun = getelementptr inbounds %"struct.std::_Smanip", %"struct.std::_Smanip"* %0, i32 0, i32 0
  %1 = load void (%"class.std::ios_base"*, i64)*, void (%"class.std::ios_base"*, i64)** %_Pfun, align 8
  %2 = load %"struct.std::_Smanip"*, %"struct.std::_Smanip"** %_Manip.addr, align 4
  %_Manarg = getelementptr inbounds %"struct.std::_Smanip", %"struct.std::_Smanip"* %2, i32 0, i32 1
  %3 = load i64, i64* %_Manarg, align 8
  %4 = load %"class.std::basic_ostream"*, %"class.std::basic_ostream"** %_Ostr.addr, align 4
  %5 = bitcast %"class.std::basic_ostream"* %4 to i8*
  %vbptr = getelementptr inbounds i8, i8* %5, i32 0
  %6 = bitcast i8* %vbptr to i32**
  %vbtable = load i32*, i32** %6, align 8
  %7 = getelementptr inbounds i32, i32* %vbtable, i32 1
  %vbase_offs = load i32, i32* %7, align 4
  %8 = add nsw i32 0, %vbase_offs
  %9 = bitcast %"class.std::basic_ostream"* %4 to i8*
  %add.ptr = getelementptr inbounds i8, i8* %9, i32 %8
  %10 = bitcast i8* %add.ptr to %"class.std::ios_base"*
  call void %1(%"class.std::ios_base"* dereferenceable(56) %10, i64 %3)
  %11 = load %"class.std::basic_ostream"*, %"class.std::basic_ostream"** %_Ostr.addr, align 4
  ret %"class.std::basic_ostream"* %11
}

declare void @"\01?setw@std@@YA?AU?$_Smanip@_J@1@_J@Z"(%"struct.std::_Smanip"* sret, i64) #1

; Function Attrs: nounwind
define linkonce_odr x86_thiscallcc dereferenceable(80) %"class.std::basic_ostream"* @"\01??6?$basic_ostream@DU?$char_traits@D@std@@@std@@QAEAAV01@H@Z"(%"class.std::basic_ostream"* %this, i32 %_Val) #0 comdat align 2 {
entry:
  %_Val.addr = alloca i32, align 4
  %this.addr = alloca %"class.std::basic_ostream"*, align 4
  %_State = alloca i32, align 4
  %_Ok = alloca %"class.std::basic_ostream<char, std::char_traits<char> >::sentry", align 4
  %_Nput_fac = alloca %"class.std::num_put"*, align 4
  %ref.tmp = alloca %"class.std::locale", align 4
  %_Bfl = alloca i32, align 4
  %_Tmp = alloca i32, align 4
  %agg.tmp = alloca %"class.std::ostreambuf_iterator", align 4
  %tmp = alloca %"class.std::ostreambuf_iterator", align 4
  store i32 %_Val, i32* %_Val.addr, align 4
  store %"class.std::basic_ostream"* %this, %"class.std::basic_ostream"** %this.addr, align 4
  %this1 = load %"class.std::basic_ostream"*, %"class.std::basic_ostream"** %this.addr, align 4
  store i32 0, i32* %_State, align 4
  %call = call x86_thiscallcc %"class.std::basic_ostream<char, std::char_traits<char> >::sentry"* @"\01??0sentry@?$basic_ostream@DU?$char_traits@D@std@@@std@@QAE@AAV12@@Z"(%"class.std::basic_ostream<char, std::char_traits<char> >::sentry"* %_Ok, %"class.std::basic_ostream"* dereferenceable(80) %this1)
  %call2 = call x86_thiscallcc zeroext i1 @"\01??Bsentry@?$basic_ostream@DU?$char_traits@D@std@@@std@@QBE_NXZ"(%"class.std::basic_ostream<char, std::char_traits<char> >::sentry"* %_Ok)
  br i1 %call2, label %if.then, label %if.end27

if.then:                                          ; preds = %entry
  %0 = bitcast %"class.std::basic_ostream"* %this1 to i8*
  %vbptr = getelementptr inbounds i8, i8* %0, i32 0
  %1 = bitcast i8* %vbptr to i32**
  %vbtable = load i32*, i32** %1, align 8
  %2 = getelementptr inbounds i32, i32* %vbtable, i32 1
  %vbase_offs = load i32, i32* %2, align 4
  %3 = add nsw i32 0, %vbase_offs
  %4 = bitcast %"class.std::basic_ostream"* %this1 to i8*
  %add.ptr = getelementptr inbounds i8, i8* %4, i32 %3
  %5 = bitcast i8* %add.ptr to %"class.std::ios_base"*
  call x86_thiscallcc void @"\01?getloc@ios_base@std@@QBE?AVlocale@2@XZ"(%"class.std::ios_base"* %5, %"class.std::locale"* sret %ref.tmp)
  %call3 = call dereferenceable(8) %"class.std::num_put"* @"\01??$use_facet@V?$num_put@DV?$ostreambuf_iterator@DU?$char_traits@D@std@@@std@@@std@@@std@@YAABV?$num_put@DV?$ostreambuf_iterator@DU?$char_traits@D@std@@@std@@@0@ABVlocale@0@@Z"(%"class.std::locale"* dereferenceable(8) %ref.tmp)
  call x86_thiscallcc void @"\01??1locale@std@@QAE@XZ"(%"class.std::locale"* %ref.tmp) #9
  store %"class.std::num_put"* %call3, %"class.std::num_put"** %_Nput_fac, align 4
  %6 = bitcast %"class.std::basic_ostream"* %this1 to i8*
  %vbptr4 = getelementptr inbounds i8, i8* %6, i32 0
  %7 = bitcast i8* %vbptr4 to i32**
  %vbtable5 = load i32*, i32** %7, align 8
  %8 = getelementptr inbounds i32, i32* %vbtable5, i32 1
  %vbase_offs6 = load i32, i32* %8, align 4
  %9 = add nsw i32 0, %vbase_offs6
  %10 = bitcast %"class.std::basic_ostream"* %this1 to i8*
  %add.ptr7 = getelementptr inbounds i8, i8* %10, i32 %9
  %11 = bitcast i8* %add.ptr7 to %"class.std::ios_base"*
  %call8 = call x86_thiscallcc i32 @"\01?flags@ios_base@std@@QBEHXZ"(%"class.std::ios_base"* %11)
  %and = and i32 %call8, 3584
  store i32 %and, i32* %_Bfl, align 4
  %12 = load i32, i32* %_Bfl, align 4
  %cmp = icmp eq i32 %12, 1024
  br i1 %cmp, label %cond.true, label %lor.lhs.false

lor.lhs.false:                                    ; preds = %if.then
  %13 = load i32, i32* %_Bfl, align 4
  %cmp9 = icmp eq i32 %13, 2048
  br i1 %cmp9, label %cond.true, label %cond.false

cond.true:                                        ; preds = %lor.lhs.false, %if.then
  %14 = load i32, i32* %_Val.addr, align 4
  br label %cond.end

cond.false:                                       ; preds = %lor.lhs.false
  %15 = load i32, i32* %_Val.addr, align 4
  br label %cond.end

cond.end:                                         ; preds = %cond.false, %cond.true
  %cond = phi i32 [ %14, %cond.true ], [ %15, %cond.false ]
  store i32 %cond, i32* %_Tmp, align 4
  %16 = load %"class.std::num_put"*, %"class.std::num_put"** %_Nput_fac, align 4
  %17 = load i32, i32* %_Tmp, align 4
  %18 = bitcast %"class.std::basic_ostream"* %this1 to i8*
  %vbptr10 = getelementptr inbounds i8, i8* %18, i32 0
  %19 = bitcast i8* %vbptr10 to i32**
  %vbtable11 = load i32*, i32** %19, align 8
  %20 = getelementptr inbounds i32, i32* %vbtable11, i32 1
  %vbase_offs12 = load i32, i32* %20, align 4
  %21 = add nsw i32 0, %vbase_offs12
  %22 = bitcast %"class.std::basic_ostream"* %this1 to i8*
  %add.ptr13 = getelementptr inbounds i8, i8* %22, i32 %21
  %23 = bitcast i8* %add.ptr13 to %"class.std::basic_ios"*
  %call14 = call x86_thiscallcc signext i8 @"\01?fill@?$basic_ios@DU?$char_traits@D@std@@@std@@QBEDXZ"(%"class.std::basic_ios"* %23)
  %24 = bitcast %"class.std::basic_ostream"* %this1 to i8*
  %vbptr15 = getelementptr inbounds i8, i8* %24, i32 0
  %25 = bitcast i8* %vbptr15 to i32**
  %vbtable16 = load i32*, i32** %25, align 8
  %26 = getelementptr inbounds i32, i32* %vbtable16, i32 1
  %vbase_offs17 = load i32, i32* %26, align 4
  %27 = add nsw i32 0, %vbase_offs17
  %28 = bitcast %"class.std::basic_ostream"* %this1 to i8*
  %add.ptr18 = getelementptr inbounds i8, i8* %28, i32 %27
  %29 = bitcast i8* %add.ptr18 to %"class.std::ios_base"*
  %30 = bitcast %"class.std::basic_ostream"* %this1 to i8*
  %vbptr19 = getelementptr inbounds i8, i8* %30, i32 0
  %31 = bitcast i8* %vbptr19 to i32**
  %vbtable20 = load i32*, i32** %31, align 8
  %32 = getelementptr inbounds i32, i32* %vbtable20, i32 1
  %vbase_offs21 = load i32, i32* %32, align 4
  %33 = add nsw i32 0, %vbase_offs21
  %34 = bitcast %"class.std::basic_ostream"* %this1 to i8*
  %add.ptr22 = getelementptr inbounds i8, i8* %34, i32 %33
  %35 = bitcast i8* %add.ptr22 to %"class.std::basic_ios"*
  %call23 = call x86_thiscallcc %"class.std::basic_streambuf"* @"\01?rdbuf@?$basic_ios@DU?$char_traits@D@std@@@std@@QBEPAV?$basic_streambuf@DU?$char_traits@D@std@@@2@XZ"(%"class.std::basic_ios"* %35)
  %call24 = call x86_thiscallcc %"class.std::ostreambuf_iterator"* @"\01??0?$ostreambuf_iterator@DU?$char_traits@D@std@@@std@@QAE@PAV?$basic_streambuf@DU?$char_traits@D@std@@@1@@Z"(%"class.std::ostreambuf_iterator"* %agg.tmp, %"class.std::basic_streambuf"* %call23) #9
  call x86_thiscallcc void @"\01?put@?$num_put@DV?$ostreambuf_iterator@DU?$char_traits@D@std@@@std@@@std@@QBE?AV?$ostreambuf_iterator@DU?$char_traits@D@std@@@2@V32@AAVios_base@2@DJ@Z"(%"class.std::num_put"* %16, %"class.std::ostreambuf_iterator"* sret %tmp, %"class.std::ostreambuf_iterator"* byval align 4 %agg.tmp, %"class.std::ios_base"* dereferenceable(56) %29, i8 signext %call14, i32 %17)
  %call25 = call x86_thiscallcc zeroext i1 @"\01?failed@?$ostreambuf_iterator@DU?$char_traits@D@std@@@std@@QBE_NXZ"(%"class.std::ostreambuf_iterator"* %tmp) #9
  br i1 %call25, label %if.then26, label %if.end

if.then26:                                        ; preds = %cond.end
  %36 = load i32, i32* %_State, align 4
  %or = or i32 %36, 4
  store i32 %or, i32* %_State, align 4
  br label %if.end

if.end:                                           ; preds = %if.then26, %cond.end
  br label %if.end27

if.end27:                                         ; preds = %if.end, %entry
  %37 = bitcast %"class.std::basic_ostream"* %this1 to i8*
  %vbptr28 = getelementptr inbounds i8, i8* %37, i32 0
  %38 = bitcast i8* %vbptr28 to i32**
  %vbtable29 = load i32*, i32** %38, align 8
  %39 = getelementptr inbounds i32, i32* %vbtable29, i32 1
  %vbase_offs30 = load i32, i32* %39, align 4
  %40 = add nsw i32 0, %vbase_offs30
  %41 = bitcast %"class.std::basic_ostream"* %this1 to i8*
  %add.ptr31 = getelementptr inbounds i8, i8* %41, i32 %40
  %42 = bitcast i8* %add.ptr31 to %"class.std::basic_ios"*
  %43 = load i32, i32* %_State, align 4
  call x86_thiscallcc void @"\01?setstate@?$basic_ios@DU?$char_traits@D@std@@@std@@QAEXH_N@Z"(%"class.std::basic_ios"* %42, i32 %43, i1 zeroext false)
  call x86_thiscallcc void @"\01??1sentry@?$basic_ostream@DU?$char_traits@D@std@@@std@@QAE@XZ"(%"class.std::basic_ostream<char, std::char_traits<char> >::sentry"* %_Ok) #9
  ret %"class.std::basic_ostream"* %this1
}

; Function Attrs: norecurse nounwind
define i32 @main() #3 {
entry:
  %retval = alloca i32, align 4
  %exp = alloca [30 x i8], align 1
  %length = alloca i32, align 4
  store i32 0, i32* %retval, align 4
  %call = call dereferenceable(80) %"class.std::basic_ostream"* @"\01??$?6U?$char_traits@D@std@@@std@@YAAAV?$basic_ostream@DU?$char_traits@D@std@@@0@AAV10@PBD@Z"(%"class.std::basic_ostream"* dereferenceable(80) @"\01?cout@std@@3V?$basic_ostream@DU?$char_traits@D@std@@@1@A", i8* getelementptr inbounds ([19 x i8], [19 x i8]* @"\01??_C@_0BD@EEMKNDLA@ENTER?5EXPRESSION?3?5?$AA@", i32 0, i32 0))
  %arraydecay = getelementptr inbounds [30 x i8], [30 x i8]* %exp, i32 0, i32 0
  %call1 = call dereferenceable(96) %"class.std::basic_istream"* @"\01??$?5DU?$char_traits@D@std@@@std@@YAAAV?$basic_istream@DU?$char_traits@D@std@@@0@AAV10@PAD@Z"(%"class.std::basic_istream"* dereferenceable(96) @"\01?cin@std@@3V?$basic_istream@DU?$char_traits@D@std@@@1@A", i8* %arraydecay)
  %arraydecay2 = getelementptr inbounds [30 x i8], [30 x i8]* %exp, i32 0, i32 0
  %call3 = call i32 @strlen(i8* %arraydecay2)
  store i32 %call3, i32* %length, align 4
  %arraydecay4 = getelementptr inbounds [30 x i8], [30 x i8]* %exp, i32 0, i32 0
  %add.ptr = getelementptr inbounds i8, i8* %arraydecay4, i32 1
  %arraydecay5 = getelementptr inbounds [30 x i8], [30 x i8]* %exp, i32 0, i32 0
  %0 = load i32, i32* %length, align 4
  call void @llvm.memmove.p0i8.p0i8.i32(i8* %add.ptr, i8* %arraydecay5, i32 %0, i32 1, i1 false)
  %arrayidx = getelementptr inbounds [30 x i8], [30 x i8]* %exp, i32 0, i32 0
  store i8 91, i8* %arrayidx, align 1
  %1 = load i32, i32* %length, align 4
  %add = add nsw i32 %1, 1
  %arrayidx6 = getelementptr inbounds [30 x i8], [30 x i8]* %exp, i32 0, i32 %add
  store i8 93, i8* %arrayidx6, align 1
  %2 = load i32, i32* %length, align 4
  %add7 = add nsw i32 %2, 2
  %arrayidx8 = getelementptr inbounds [30 x i8], [30 x i8]* %exp, i32 0, i32 %add7
  store i8 0, i8* %arrayidx8, align 1
  %arraydecay9 = getelementptr inbounds [30 x i8], [30 x i8]* %exp, i32 0, i32 0
  %call10 = call dereferenceable(80) %"class.std::basic_ostream"* @"\01??$?6U?$char_traits@D@std@@@std@@YAAAV?$basic_ostream@DU?$char_traits@D@std@@@0@AAV10@PBD@Z"(%"class.std::basic_ostream"* dereferenceable(80) @"\01?cout@std@@3V?$basic_ostream@DU?$char_traits@D@std@@@1@A", i8* %arraydecay9)
  %arraydecay11 = getelementptr inbounds [30 x i8], [30 x i8]* %exp, i32 0, i32 0
  call void @"\01?init_string@@YAXPAD@Z"(i8* %arraydecay11)
  call void @"\01?parser@@YAXXZ"()
  %call12 = call i32 @getchar()
  %call13 = call i32 @getchar()
  ret i32 0
}

; Function Attrs: inlinehint nounwind
define linkonce_odr dereferenceable(96) %"class.std::basic_istream"* @"\01??$?5DU?$char_traits@D@std@@@std@@YAAAV?$basic_istream@DU?$char_traits@D@std@@@0@AAV10@PAD@Z"(%"class.std::basic_istream"* dereferenceable(96) %_Istr, i8* %_Str) #2 comdat {
entry:
  %_Str.addr = alloca i8*, align 4
  %_Istr.addr = alloca %"class.std::basic_istream"*, align 4
  %_State = alloca i32, align 4
  %_Str0 = alloca i8*, align 4
  %_Ok = alloca %"class.std::basic_istream<char, std::char_traits<char> >::sentry", align 4
  %_Ctype_fac = alloca %"class.std::ctype"*, align 4
  %ref.tmp = alloca %"class.std::locale", align 4
  %_Count = alloca i64, align 8
  %_Meta = alloca i32, align 4
  %_Ch = alloca i8, align 1
  %ref.tmp21 = alloca i32, align 4
  store i8* %_Str, i8** %_Str.addr, align 4
  store %"class.std::basic_istream"* %_Istr, %"class.std::basic_istream"** %_Istr.addr, align 4
  store i32 0, i32* %_State, align 4
  %0 = load i8*, i8** %_Str.addr, align 4
  store i8* %0, i8** %_Str0, align 4
  %1 = load %"class.std::basic_istream"*, %"class.std::basic_istream"** %_Istr.addr, align 4
  %call = call x86_thiscallcc %"class.std::basic_istream<char, std::char_traits<char> >::sentry"* @"\01??0sentry@?$basic_istream@DU?$char_traits@D@std@@@std@@QAE@AAV12@_N@Z"(%"class.std::basic_istream<char, std::char_traits<char> >::sentry"* %_Ok, %"class.std::basic_istream"* dereferenceable(96) %1, i1 zeroext false)
  %call1 = call x86_thiscallcc zeroext i1 @"\01??Bsentry@?$basic_istream@DU?$char_traits@D@std@@@std@@QBE_NXZ"(%"class.std::basic_istream<char, std::char_traits<char> >::sentry"* %_Ok)
  br i1 %call1, label %if.then, label %if.end38

if.then:                                          ; preds = %entry
  %2 = load %"class.std::basic_istream"*, %"class.std::basic_istream"** %_Istr.addr, align 4
  %3 = bitcast %"class.std::basic_istream"* %2 to i8*
  %vbptr = getelementptr inbounds i8, i8* %3, i32 0
  %4 = bitcast i8* %vbptr to i32**
  %vbtable = load i32*, i32** %4, align 8
  %5 = getelementptr inbounds i32, i32* %vbtable, i32 1
  %vbase_offs = load i32, i32* %5, align 4
  %6 = add nsw i32 0, %vbase_offs
  %7 = bitcast %"class.std::basic_istream"* %2 to i8*
  %add.ptr = getelementptr inbounds i8, i8* %7, i32 %6
  %8 = bitcast i8* %add.ptr to %"class.std::ios_base"*
  call x86_thiscallcc void @"\01?getloc@ios_base@std@@QBE?AVlocale@2@XZ"(%"class.std::ios_base"* %8, %"class.std::locale"* sret %ref.tmp)
  %call2 = call dereferenceable(24) %"class.std::ctype"* @"\01??$use_facet@V?$ctype@D@std@@@std@@YAABV?$ctype@D@0@ABVlocale@0@@Z"(%"class.std::locale"* dereferenceable(8) %ref.tmp)
  call x86_thiscallcc void @"\01??1locale@std@@QAE@XZ"(%"class.std::locale"* %ref.tmp) #9
  store %"class.std::ctype"* %call2, %"class.std::ctype"** %_Ctype_fac, align 4
  %9 = load %"class.std::basic_istream"*, %"class.std::basic_istream"** %_Istr.addr, align 4
  %10 = bitcast %"class.std::basic_istream"* %9 to i8*
  %vbptr3 = getelementptr inbounds i8, i8* %10, i32 0
  %11 = bitcast i8* %vbptr3 to i32**
  %vbtable4 = load i32*, i32** %11, align 8
  %12 = getelementptr inbounds i32, i32* %vbtable4, i32 1
  %vbase_offs5 = load i32, i32* %12, align 4
  %13 = add nsw i32 0, %vbase_offs5
  %14 = bitcast %"class.std::basic_istream"* %9 to i8*
  %add.ptr6 = getelementptr inbounds i8, i8* %14, i32 %13
  %15 = bitcast i8* %add.ptr6 to %"class.std::ios_base"*
  %call7 = call x86_thiscallcc i64 @"\01?width@ios_base@std@@QBE_JXZ"(%"class.std::ios_base"* %15)
  %cmp = icmp slt i64 0, %call7
  br i1 %cmp, label %cond.true, label %cond.false

cond.true:                                        ; preds = %if.then
  %16 = load %"class.std::basic_istream"*, %"class.std::basic_istream"** %_Istr.addr, align 4
  %17 = bitcast %"class.std::basic_istream"* %16 to i8*
  %vbptr8 = getelementptr inbounds i8, i8* %17, i32 0
  %18 = bitcast i8* %vbptr8 to i32**
  %vbtable9 = load i32*, i32** %18, align 8
  %19 = getelementptr inbounds i32, i32* %vbtable9, i32 1
  %vbase_offs10 = load i32, i32* %19, align 4
  %20 = add nsw i32 0, %vbase_offs10
  %21 = bitcast %"class.std::basic_istream"* %16 to i8*
  %add.ptr11 = getelementptr inbounds i8, i8* %21, i32 %20
  %22 = bitcast i8* %add.ptr11 to %"class.std::ios_base"*
  %call12 = call x86_thiscallcc i64 @"\01?width@ios_base@std@@QBE_JXZ"(%"class.std::ios_base"* %22)
  br label %cond.end

cond.false:                                       ; preds = %if.then
  %call13 = call i64 @"\01?max@?$numeric_limits@_J@std@@SA_JXZ"() #9
  br label %cond.end

cond.end:                                         ; preds = %cond.false, %cond.true
  %cond = phi i64 [ %call12, %cond.true ], [ %call13, %cond.false ]
  store i64 %cond, i64* %_Count, align 8
  %23 = load %"class.std::basic_istream"*, %"class.std::basic_istream"** %_Istr.addr, align 4
  %24 = bitcast %"class.std::basic_istream"* %23 to i8*
  %vbptr14 = getelementptr inbounds i8, i8* %24, i32 0
  %25 = bitcast i8* %vbptr14 to i32**
  %vbtable15 = load i32*, i32** %25, align 8
  %26 = getelementptr inbounds i32, i32* %vbtable15, i32 1
  %vbase_offs16 = load i32, i32* %26, align 4
  %27 = add nsw i32 0, %vbase_offs16
  %28 = bitcast %"class.std::basic_istream"* %23 to i8*
  %add.ptr17 = getelementptr inbounds i8, i8* %28, i32 %27
  %29 = bitcast i8* %add.ptr17 to %"class.std::basic_ios"*
  %call18 = call x86_thiscallcc %"class.std::basic_streambuf"* @"\01?rdbuf@?$basic_ios@DU?$char_traits@D@std@@@std@@QBEPAV?$basic_streambuf@DU?$char_traits@D@std@@@2@XZ"(%"class.std::basic_ios"* %29)
  %call19 = call x86_thiscallcc i32 @"\01?sgetc@?$basic_streambuf@DU?$char_traits@D@std@@@std@@QAEHXZ"(%"class.std::basic_streambuf"* %call18)
  store i32 %call19, i32* %_Meta, align 4
  br label %for.cond

for.cond:                                         ; preds = %for.inc, %cond.end
  %30 = load i64, i64* %_Count, align 8
  %dec = add nsw i64 %30, -1
  store i64 %dec, i64* %_Count, align 8
  %cmp20 = icmp slt i64 0, %dec
  br i1 %cmp20, label %for.body, label %for.end

for.body:                                         ; preds = %for.cond
  %call22 = call i32 @"\01?eof@?$char_traits@D@std@@SAHXZ"() #9
  store i32 %call22, i32* %ref.tmp21, align 4
  %call23 = call zeroext i1 @"\01?eq_int_type@?$char_traits@D@std@@SA_NABH0@Z"(i32* dereferenceable(4) %ref.tmp21, i32* dereferenceable(4) %_Meta) #9
  br i1 %call23, label %if.then24, label %if.else

if.then24:                                        ; preds = %for.body
  %31 = load i32, i32* %_State, align 4
  %or = or i32 %31, 1
  store i32 %or, i32* %_State, align 4
  br label %for.end

if.else:                                          ; preds = %for.body
  %32 = load %"class.std::ctype"*, %"class.std::ctype"** %_Ctype_fac, align 4
  %call25 = call signext i8 @"\01?to_char_type@?$char_traits@D@std@@SADABH@Z"(i32* dereferenceable(4) %_Meta) #9
  store i8 %call25, i8* %_Ch, align 1
  %call26 = call x86_thiscallcc zeroext i1 @"\01?is@?$ctype@D@std@@QBE_NFD@Z"(%"class.std::ctype"* %32, i16 signext 72, i8 signext %call25)
  br i1 %call26, label %if.then28, label %lor.lhs.false

lor.lhs.false:                                    ; preds = %if.else
  %33 = load i8, i8* %_Ch, align 1
  %conv = sext i8 %33 to i32
  %cmp27 = icmp eq i32 %conv, 0
  br i1 %cmp27, label %if.then28, label %if.else29

if.then28:                                        ; preds = %lor.lhs.false, %if.else
  br label %for.end

if.else29:                                        ; preds = %lor.lhs.false
  %call30 = call signext i8 @"\01?to_char_type@?$char_traits@D@std@@SADABH@Z"(i32* dereferenceable(4) %_Meta) #9
  %34 = load i8*, i8** %_Str.addr, align 4
  %incdec.ptr = getelementptr inbounds i8, i8* %34, i32 1
  store i8* %incdec.ptr, i8** %_Str.addr, align 4
  store i8 %call30, i8* %34, align 1
  br label %if.end

if.end:                                           ; preds = %if.else29
  br label %if.end31

if.end31:                                         ; preds = %if.end
  br label %for.inc

for.inc:                                          ; preds = %if.end31
  %35 = load %"class.std::basic_istream"*, %"class.std::basic_istream"** %_Istr.addr, align 4
  %36 = bitcast %"class.std::basic_istream"* %35 to i8*
  %vbptr32 = getelementptr inbounds i8, i8* %36, i32 0
  %37 = bitcast i8* %vbptr32 to i32**
  %vbtable33 = load i32*, i32** %37, align 8
  %38 = getelementptr inbounds i32, i32* %vbtable33, i32 1
  %vbase_offs34 = load i32, i32* %38, align 4
  %39 = add nsw i32 0, %vbase_offs34
  %40 = bitcast %"class.std::basic_istream"* %35 to i8*
  %add.ptr35 = getelementptr inbounds i8, i8* %40, i32 %39
  %41 = bitcast i8* %add.ptr35 to %"class.std::basic_ios"*
  %call36 = call x86_thiscallcc %"class.std::basic_streambuf"* @"\01?rdbuf@?$basic_ios@DU?$char_traits@D@std@@@std@@QBEPAV?$basic_streambuf@DU?$char_traits@D@std@@@2@XZ"(%"class.std::basic_ios"* %41)
  %call37 = call x86_thiscallcc i32 @"\01?snextc@?$basic_streambuf@DU?$char_traits@D@std@@@std@@QAEHXZ"(%"class.std::basic_streambuf"* %call36)
  store i32 %call37, i32* %_Meta, align 4
  br label %for.cond

for.end:                                          ; preds = %if.then28, %if.then24, %for.cond
  br label %if.end38

if.end38:                                         ; preds = %for.end, %entry
  %42 = load i8*, i8** %_Str.addr, align 4
  store i8 0, i8* %42, align 1
  %43 = load %"class.std::basic_istream"*, %"class.std::basic_istream"** %_Istr.addr, align 4
  %44 = bitcast %"class.std::basic_istream"* %43 to i8*
  %vbptr39 = getelementptr inbounds i8, i8* %44, i32 0
  %45 = bitcast i8* %vbptr39 to i32**
  %vbtable40 = load i32*, i32** %45, align 8
  %46 = getelementptr inbounds i32, i32* %vbtable40, i32 1
  %vbase_offs41 = load i32, i32* %46, align 4
  %47 = add nsw i32 0, %vbase_offs41
  %48 = bitcast %"class.std::basic_istream"* %43 to i8*
  %add.ptr42 = getelementptr inbounds i8, i8* %48, i32 %47
  %49 = bitcast i8* %add.ptr42 to %"class.std::ios_base"*
  %call43 = call x86_thiscallcc i64 @"\01?width@ios_base@std@@QAE_J_J@Z"(%"class.std::ios_base"* %49, i64 0)
  %50 = load %"class.std::basic_istream"*, %"class.std::basic_istream"** %_Istr.addr, align 4
  %51 = bitcast %"class.std::basic_istream"* %50 to i8*
  %vbptr44 = getelementptr inbounds i8, i8* %51, i32 0
  %52 = bitcast i8* %vbptr44 to i32**
  %vbtable45 = load i32*, i32** %52, align 8
  %53 = getelementptr inbounds i32, i32* %vbtable45, i32 1
  %vbase_offs46 = load i32, i32* %53, align 4
  %54 = add nsw i32 0, %vbase_offs46
  %55 = bitcast %"class.std::basic_istream"* %50 to i8*
  %add.ptr47 = getelementptr inbounds i8, i8* %55, i32 %54
  %56 = bitcast i8* %add.ptr47 to %"class.std::basic_ios"*
  %57 = load i8*, i8** %_Str.addr, align 4
  %58 = load i8*, i8** %_Str0, align 4
  %cmp48 = icmp eq i8* %57, %58
  br i1 %cmp48, label %cond.true49, label %cond.false51

cond.true49:                                      ; preds = %if.end38
  %59 = load i32, i32* %_State, align 4
  %or50 = or i32 %59, 2
  br label %cond.end52

cond.false51:                                     ; preds = %if.end38
  %60 = load i32, i32* %_State, align 4
  br label %cond.end52

cond.end52:                                       ; preds = %cond.false51, %cond.true49
  %cond53 = phi i32 [ %or50, %cond.true49 ], [ %60, %cond.false51 ]
  call x86_thiscallcc void @"\01?setstate@?$basic_ios@DU?$char_traits@D@std@@@std@@QAEXH_N@Z"(%"class.std::basic_ios"* %56, i32 %cond53, i1 zeroext false)
  %61 = load %"class.std::basic_istream"*, %"class.std::basic_istream"** %_Istr.addr, align 4
  call x86_thiscallcc void @"\01??1sentry@?$basic_istream@DU?$char_traits@D@std@@@std@@QAE@XZ"(%"class.std::basic_istream<char, std::char_traits<char> >::sentry"* %_Ok) #9
  ret %"class.std::basic_istream"* %61
}

declare i32 @strlen(i8*) #1

; Function Attrs: argmemonly nounwind
declare void @llvm.memmove.p0i8.p0i8.i32(i8* nocapture, i8* nocapture readonly, i32, i32, i1) #4

declare i32 @getchar() #1

; Function Attrs: nounwind
define linkonce_odr void @"\01??__Eid@?$num_put@DV?$ostreambuf_iterator@DU?$char_traits@D@std@@@std@@@std@@2V0locale@2@A@YAXXZ"() #0 comdat {
entry:
  %call = call x86_thiscallcc %"class.std::locale::id"* @"\01??0id@locale@std@@QAE@I@Z"(%"class.std::locale::id"* @"\01?id@?$num_put@DV?$ostreambuf_iterator@DU?$char_traits@D@std@@@std@@@std@@2V0locale@2@A", i32 0)
  ret void
}

; Function Attrs: nounwind
define linkonce_odr x86_thiscallcc %"class.std::locale::id"* @"\01??0id@locale@std@@QAE@I@Z"(%"class.std::locale::id"* returned %this, i32 %_Val) unnamed_addr #0 comdat align 2 {
entry:
  %_Val.addr = alloca i32, align 4
  %this.addr = alloca %"class.std::locale::id"*, align 4
  store i32 %_Val, i32* %_Val.addr, align 4
  store %"class.std::locale::id"* %this, %"class.std::locale::id"** %this.addr, align 4
  %this1 = load %"class.std::locale::id"*, %"class.std::locale::id"** %this.addr, align 4
  %_Id = getelementptr inbounds %"class.std::locale::id", %"class.std::locale::id"* %this1, i32 0, i32 0
  %0 = load i32, i32* %_Val.addr, align 4
  store i32 %0, i32* %_Id, align 4
  ret %"class.std::locale::id"* %this1
}

; Function Attrs: nounwind
define linkonce_odr void @"\01??__Eid@?$numpunct@D@std@@2V0locale@2@A@YAXXZ"() #0 comdat {
entry:
  %call = call x86_thiscallcc %"class.std::locale::id"* @"\01??0id@locale@std@@QAE@I@Z"(%"class.std::locale::id"* @"\01?id@?$numpunct@D@std@@2V0locale@2@A", i32 0)
  ret void
}

; Function Attrs: nounwind
define linkonce_odr x86_thiscallcc void @"\01?_Tidy@?$basic_string@DU?$char_traits@D@std@@V?$allocator@D@2@@std@@QAEX_NI@Z"(%"class.std::basic_string"* %this, i1 zeroext %_Built, i32 %_Newsize) #0 comdat align 2 {
entry:
  %_Newsize.addr = alloca i32, align 4
  %_Built.addr = alloca i8, align 1
  %this.addr = alloca %"class.std::basic_string"*, align 4
  %_Ptr = alloca i8*, align 4
  store i32 %_Newsize, i32* %_Newsize.addr, align 4
  %frombool = zext i1 %_Built to i8
  store i8 %frombool, i8* %_Built.addr, align 1
  store %"class.std::basic_string"* %this, %"class.std::basic_string"** %this.addr, align 4
  %this1 = load %"class.std::basic_string"*, %"class.std::basic_string"** %this.addr, align 4
  %0 = load i8, i8* %_Built.addr, align 1
  %tobool = trunc i8 %0 to i1
  br i1 %tobool, label %if.else, label %if.then

if.then:                                          ; preds = %entry
  br label %if.end16

if.else:                                          ; preds = %entry
  %1 = bitcast %"class.std::basic_string"* %this1 to %"class.std::_String_alloc"*
  %call = call x86_thiscallcc dereferenceable(4) i32* @"\01?_Myres@?$_String_alloc@U?$_String_base_types@DV?$allocator@D@std@@@std@@@std@@QAEAAIXZ"(%"class.std::_String_alloc"* %1) #9
  %2 = load i32, i32* %call, align 4
  %cmp = icmp ule i32 16, %2
  br i1 %cmp, label %if.then2, label %if.end15

if.then2:                                         ; preds = %if.else
  %3 = bitcast %"class.std::basic_string"* %this1 to %"class.std::_String_alloc"*
  %call3 = call x86_thiscallcc dereferenceable(16) %"union.std::_String_val<std::_Simple_types<char> >::_Bxty"* @"\01?_Bx@?$_String_alloc@U?$_String_base_types@DV?$allocator@D@std@@@std@@@std@@QAEAAT_Bxty@?$_String_val@U?$_Simple_types@D@std@@@2@XZ"(%"class.std::_String_alloc"* %3) #9
  %_Ptr4 = bitcast %"union.std::_String_val<std::_Simple_types<char> >::_Bxty"* %call3 to i8**
  %4 = load i8*, i8** %_Ptr4, align 4
  store i8* %4, i8** %_Ptr, align 4
  %5 = bitcast %"class.std::basic_string"* %this1 to %"class.std::_String_alloc"*
  %call5 = call x86_thiscallcc dereferenceable(1) %"struct.std::_Wrap_alloc"* @"\01?_Getal@?$_String_alloc@U?$_String_base_types@DV?$allocator@D@std@@@std@@@std@@QAEAAU?$_Wrap_alloc@V?$allocator@D@std@@@2@XZ"(%"class.std::_String_alloc"* %5) #9
  %6 = bitcast %"class.std::basic_string"* %this1 to %"class.std::_String_alloc"*
  %call6 = call x86_thiscallcc dereferenceable(16) %"union.std::_String_val<std::_Simple_types<char> >::_Bxty"* @"\01?_Bx@?$_String_alloc@U?$_String_base_types@DV?$allocator@D@std@@@std@@@std@@QAEAAT_Bxty@?$_String_val@U?$_Simple_types@D@std@@@2@XZ"(%"class.std::_String_alloc"* %6) #9
  %_Ptr7 = bitcast %"union.std::_String_val<std::_Simple_types<char> >::_Bxty"* %call6 to i8**
  call x86_thiscallcc void @"\01??$destroy@PAD@?$_Wrap_alloc@V?$allocator@D@std@@@std@@QAEXPAPAD@Z"(%"struct.std::_Wrap_alloc"* %call5, i8** %_Ptr7)
  %7 = load i32, i32* %_Newsize.addr, align 4
  %cmp8 = icmp ult i32 0, %7
  br i1 %cmp8, label %if.then9, label %if.end

if.then9:                                         ; preds = %if.then2
  %8 = load i32, i32* %_Newsize.addr, align 4
  %9 = load i8*, i8** %_Ptr, align 4
  %call10 = call i8* @"\01??$addressof@D@std@@YAPADAAD@Z"(i8* dereferenceable(1) %9) #9
  %10 = bitcast %"class.std::basic_string"* %this1 to %"class.std::_String_alloc"*
  %call11 = call x86_thiscallcc dereferenceable(16) %"union.std::_String_val<std::_Simple_types<char> >::_Bxty"* @"\01?_Bx@?$_String_alloc@U?$_String_base_types@DV?$allocator@D@std@@@std@@@std@@QAEAAT_Bxty@?$_String_val@U?$_Simple_types@D@std@@@2@XZ"(%"class.std::_String_alloc"* %10) #9
  %_Buf = bitcast %"union.std::_String_val<std::_Simple_types<char> >::_Bxty"* %call11 to [16 x i8]*
  %arraydecay = getelementptr inbounds [16 x i8], [16 x i8]* %_Buf, i32 0, i32 0
  %call12 = call i8* @"\01?copy@?$char_traits@D@std@@SAPADPADPBDI@Z"(i8* %arraydecay, i8* %call10, i32 %8)
  br label %if.end

if.end:                                           ; preds = %if.then9, %if.then2
  %11 = bitcast %"class.std::basic_string"* %this1 to %"class.std::_String_alloc"*
  %call13 = call x86_thiscallcc dereferenceable(1) %"struct.std::_Wrap_alloc"* @"\01?_Getal@?$_String_alloc@U?$_String_base_types@DV?$allocator@D@std@@@std@@@std@@QAEAAU?$_Wrap_alloc@V?$allocator@D@std@@@2@XZ"(%"class.std::_String_alloc"* %11) #9
  %12 = bitcast %"class.std::basic_string"* %this1 to %"class.std::_String_alloc"*
  %call14 = call x86_thiscallcc dereferenceable(4) i32* @"\01?_Myres@?$_String_alloc@U?$_String_base_types@DV?$allocator@D@std@@@std@@@std@@QAEAAIXZ"(%"class.std::_String_alloc"* %12) #9
  %13 = load i32, i32* %call14, align 4
  %add = add i32 %13, 1
  %14 = load i8*, i8** %_Ptr, align 4
  call x86_thiscallcc void @"\01?deallocate@?$_Wrap_alloc@V?$allocator@D@std@@@std@@QAEXPADI@Z"(%"struct.std::_Wrap_alloc"* %call13, i8* %14, i32 %add)
  br label %if.end15

if.end15:                                         ; preds = %if.end, %if.else
  br label %if.end16

if.end16:                                         ; preds = %if.end15, %if.then
  %15 = bitcast %"class.std::basic_string"* %this1 to %"class.std::_String_alloc"*
  %call17 = call x86_thiscallcc dereferenceable(4) i32* @"\01?_Myres@?$_String_alloc@U?$_String_base_types@DV?$allocator@D@std@@@std@@@std@@QAEAAIXZ"(%"class.std::_String_alloc"* %15) #9
  store i32 15, i32* %call17, align 4
  %16 = load i32, i32* %_Newsize.addr, align 4
  call x86_thiscallcc void @"\01?_Eos@?$basic_string@DU?$char_traits@D@std@@V?$allocator@D@2@@std@@QAEXI@Z"(%"class.std::basic_string"* %this1, i32 %16)
  ret void
}

; Function Attrs: nounwind
define linkonce_odr x86_thiscallcc dereferenceable(4) i32* @"\01?_Myres@?$_String_alloc@U?$_String_base_types@DV?$allocator@D@std@@@std@@@std@@QAEAAIXZ"(%"class.std::_String_alloc"* %this) #0 comdat align 2 {
entry:
  %this.addr = alloca %"class.std::_String_alloc"*, align 4
  store %"class.std::_String_alloc"* %this, %"class.std::_String_alloc"** %this.addr, align 4
  %this1 = load %"class.std::_String_alloc"*, %"class.std::_String_alloc"** %this.addr, align 4
  %call = call x86_thiscallcc dereferenceable(24) %"class.std::_String_val"* @"\01?_Get_data@?$_String_alloc@U?$_String_base_types@DV?$allocator@D@std@@@std@@@std@@QAEAAV?$_String_val@U?$_Simple_types@D@std@@@2@XZ"(%"class.std::_String_alloc"* %this1) #9
  %_Myres = getelementptr inbounds %"class.std::_String_val", %"class.std::_String_val"* %call, i32 0, i32 2
  ret i32* %_Myres
}

; Function Attrs: nounwind
define linkonce_odr x86_thiscallcc dereferenceable(16) %"union.std::_String_val<std::_Simple_types<char> >::_Bxty"* @"\01?_Bx@?$_String_alloc@U?$_String_base_types@DV?$allocator@D@std@@@std@@@std@@QAEAAT_Bxty@?$_String_val@U?$_Simple_types@D@std@@@2@XZ"(%"class.std::_String_alloc"* %this) #0 comdat align 2 {
entry:
  %this.addr = alloca %"class.std::_String_alloc"*, align 4
  store %"class.std::_String_alloc"* %this, %"class.std::_String_alloc"** %this.addr, align 4
  %this1 = load %"class.std::_String_alloc"*, %"class.std::_String_alloc"** %this.addr, align 4
  %call = call x86_thiscallcc dereferenceable(24) %"class.std::_String_val"* @"\01?_Get_data@?$_String_alloc@U?$_String_base_types@DV?$allocator@D@std@@@std@@@std@@QAEAAV?$_String_val@U?$_Simple_types@D@std@@@2@XZ"(%"class.std::_String_alloc"* %this1) #9
  %_Bx = getelementptr inbounds %"class.std::_String_val", %"class.std::_String_val"* %call, i32 0, i32 0
  ret %"union.std::_String_val<std::_Simple_types<char> >::_Bxty"* %_Bx
}

; Function Attrs: nounwind
define linkonce_odr x86_thiscallcc dereferenceable(1) %"struct.std::_Wrap_alloc"* @"\01?_Getal@?$_String_alloc@U?$_String_base_types@DV?$allocator@D@std@@@std@@@std@@QAEAAU?$_Wrap_alloc@V?$allocator@D@std@@@2@XZ"(%"class.std::_String_alloc"* %this) #0 comdat align 2 {
entry:
  %this.addr = alloca %"class.std::_String_alloc"*, align 4
  store %"class.std::_String_alloc"* %this, %"class.std::_String_alloc"** %this.addr, align 4
  %this1 = load %"class.std::_String_alloc"*, %"class.std::_String_alloc"** %this.addr, align 4
  %_Mypair = getelementptr inbounds %"class.std::_String_alloc", %"class.std::_String_alloc"* %this1, i32 0, i32 0
  %call = call x86_thiscallcc dereferenceable(1) %"struct.std::_Wrap_alloc"* @"\01?_Get_first@?$_Compressed_pair@U?$_Wrap_alloc@V?$allocator@D@std@@@std@@V?$_String_val@U?$_Simple_types@D@std@@@2@$00@std@@QAEAAU?$_Wrap_alloc@V?$allocator@D@std@@@2@XZ"(%"class.std::_Compressed_pair"* %_Mypair) #9
  ret %"struct.std::_Wrap_alloc"* %call
}

; Function Attrs: nounwind
define linkonce_odr x86_thiscallcc void @"\01??$destroy@PAD@?$_Wrap_alloc@V?$allocator@D@std@@@std@@QAEXPAPAD@Z"(%"struct.std::_Wrap_alloc"* %this, i8** %_Ptr) #0 comdat align 2 {
entry:
  %_Ptr.addr = alloca i8**, align 4
  %this.addr = alloca %"struct.std::_Wrap_alloc"*, align 4
  store i8** %_Ptr, i8*** %_Ptr.addr, align 4
  store %"struct.std::_Wrap_alloc"* %this, %"struct.std::_Wrap_alloc"** %this.addr, align 4
  %this1 = load %"struct.std::_Wrap_alloc"*, %"struct.std::_Wrap_alloc"** %this.addr, align 4
  %0 = load i8**, i8*** %_Ptr.addr, align 4
  %1 = bitcast %"struct.std::_Wrap_alloc"* %this1 to %"class.std::allocator"*
  call void @"\01??$destroy@PAD@?$allocator_traits@V?$allocator@D@std@@@std@@SAXAAV?$allocator@D@1@PAPAD@Z"(%"class.std::allocator"* dereferenceable(1) %1, i8** %0)
  ret void
}

; Function Attrs: nounwind
define linkonce_odr i8* @"\01?copy@?$char_traits@D@std@@SAPADPADPBDI@Z"(i8* %_First1, i8* %_First2, i32 %_Count) #0 comdat align 2 {
entry:
  %_Count.addr = alloca i32, align 4
  %_First2.addr = alloca i8*, align 4
  %_First1.addr = alloca i8*, align 4
  store i32 %_Count, i32* %_Count.addr, align 4
  store i8* %_First2, i8** %_First2.addr, align 4
  store i8* %_First1, i8** %_First1.addr, align 4
  %0 = load i32, i32* %_Count.addr, align 4
  %cmp = icmp eq i32 %0, 0
  br i1 %cmp, label %cond.true, label %cond.false

cond.true:                                        ; preds = %entry
  %1 = load i8*, i8** %_First1.addr, align 4
  br label %cond.end

cond.false:                                       ; preds = %entry
  %2 = load i8*, i8** %_First1.addr, align 4
  %3 = load i8*, i8** %_First2.addr, align 4
  %4 = load i32, i32* %_Count.addr, align 4
  call void @llvm.memcpy.p0i8.p0i8.i32(i8* %2, i8* %3, i32 %4, i32 1, i1 false)
  br label %cond.end

cond.end:                                         ; preds = %cond.false, %cond.true
  %cond = phi i8* [ %1, %cond.true ], [ %2, %cond.false ]
  ret i8* %cond
}

; Function Attrs: inlinehint nounwind
define linkonce_odr i8* @"\01??$addressof@D@std@@YAPADAAD@Z"(i8* dereferenceable(1) %_Val) #2 comdat {
entry:
  %_Val.addr = alloca i8*, align 4
  %agg.tmp = alloca %"struct.std::integral_constant", align 4
  %ref.tmp = alloca %"struct.std::is_function", align 1
  store i8* %_Val, i8** %_Val.addr, align 4
  %0 = bitcast %"struct.std::is_function"* %ref.tmp to %"struct.std::integral_constant"*
  %1 = load i8*, i8** %_Val.addr, align 4
  %call = call i8* @"\01??$_Addressof@D@std@@YAPADAADU?$integral_constant@_N$0A@@0@@Z"(i8* dereferenceable(1) %1, %"struct.std::integral_constant"* byval align 4 %agg.tmp) #9
  ret i8* %call
}

; Function Attrs: nounwind
define linkonce_odr x86_thiscallcc void @"\01?deallocate@?$_Wrap_alloc@V?$allocator@D@std@@@std@@QAEXPADI@Z"(%"struct.std::_Wrap_alloc"* %this, i8* %_Ptr, i32 %_Count) #0 comdat align 2 {
entry:
  %_Count.addr = alloca i32, align 4
  %_Ptr.addr = alloca i8*, align 4
  %this.addr = alloca %"struct.std::_Wrap_alloc"*, align 4
  store i32 %_Count, i32* %_Count.addr, align 4
  store i8* %_Ptr, i8** %_Ptr.addr, align 4
  store %"struct.std::_Wrap_alloc"* %this, %"struct.std::_Wrap_alloc"** %this.addr, align 4
  %this1 = load %"struct.std::_Wrap_alloc"*, %"struct.std::_Wrap_alloc"** %this.addr, align 4
  %0 = bitcast %"struct.std::_Wrap_alloc"* %this1 to %"class.std::allocator"*
  %1 = load i32, i32* %_Count.addr, align 4
  %2 = load i8*, i8** %_Ptr.addr, align 4
  call x86_thiscallcc void @"\01?deallocate@?$allocator@D@std@@QAEXPADI@Z"(%"class.std::allocator"* %0, i8* %2, i32 %1)
  ret void
}

; Function Attrs: nounwind
define linkonce_odr x86_thiscallcc void @"\01?_Eos@?$basic_string@DU?$char_traits@D@std@@V?$allocator@D@2@@std@@QAEXI@Z"(%"class.std::basic_string"* %this, i32 %_Newsize) #0 comdat align 2 {
entry:
  %_Newsize.addr = alloca i32, align 4
  %this.addr = alloca %"class.std::basic_string"*, align 4
  %ref.tmp = alloca i8, align 1
  store i32 %_Newsize, i32* %_Newsize.addr, align 4
  store %"class.std::basic_string"* %this, %"class.std::basic_string"** %this.addr, align 4
  %this1 = load %"class.std::basic_string"*, %"class.std::basic_string"** %this.addr, align 4
  store i8 0, i8* %ref.tmp, align 1
  %0 = load i32, i32* %_Newsize.addr, align 4
  %1 = bitcast %"class.std::basic_string"* %this1 to %"class.std::_String_alloc"*
  %call = call x86_thiscallcc dereferenceable(4) i32* @"\01?_Mysize@?$_String_alloc@U?$_String_base_types@DV?$allocator@D@std@@@std@@@std@@QAEAAIXZ"(%"class.std::_String_alloc"* %1) #9
  store i32 %0, i32* %call, align 4
  %2 = bitcast %"class.std::basic_string"* %this1 to %"class.std::_String_alloc"*
  %call2 = call x86_thiscallcc i8* @"\01?_Myptr@?$_String_alloc@U?$_String_base_types@DV?$allocator@D@std@@@std@@@std@@QAEPADXZ"(%"class.std::_String_alloc"* %2)
  %arrayidx = getelementptr inbounds i8, i8* %call2, i32 %0
  call void @"\01?assign@?$char_traits@D@std@@SAXAADABD@Z"(i8* dereferenceable(1) %arrayidx, i8* dereferenceable(1) %ref.tmp) #9
  ret void
}

; Function Attrs: nounwind
define linkonce_odr x86_thiscallcc dereferenceable(24) %"class.std::_String_val"* @"\01?_Get_data@?$_String_alloc@U?$_String_base_types@DV?$allocator@D@std@@@std@@@std@@QAEAAV?$_String_val@U?$_Simple_types@D@std@@@2@XZ"(%"class.std::_String_alloc"* %this) #0 comdat align 2 {
entry:
  %this.addr = alloca %"class.std::_String_alloc"*, align 4
  store %"class.std::_String_alloc"* %this, %"class.std::_String_alloc"** %this.addr, align 4
  %this1 = load %"class.std::_String_alloc"*, %"class.std::_String_alloc"** %this.addr, align 4
  %_Mypair = getelementptr inbounds %"class.std::_String_alloc", %"class.std::_String_alloc"* %this1, i32 0, i32 0
  %call = call x86_thiscallcc dereferenceable(24) %"class.std::_String_val"* @"\01?_Get_second@?$_Compressed_pair@U?$_Wrap_alloc@V?$allocator@D@std@@@std@@V?$_String_val@U?$_Simple_types@D@std@@@2@$00@std@@QAEAAV?$_String_val@U?$_Simple_types@D@std@@@2@XZ"(%"class.std::_Compressed_pair"* %_Mypair) #9
  ret %"class.std::_String_val"* %call
}

; Function Attrs: nounwind
define linkonce_odr x86_thiscallcc dereferenceable(24) %"class.std::_String_val"* @"\01?_Get_second@?$_Compressed_pair@U?$_Wrap_alloc@V?$allocator@D@std@@@std@@V?$_String_val@U?$_Simple_types@D@std@@@2@$00@std@@QAEAAV?$_String_val@U?$_Simple_types@D@std@@@2@XZ"(%"class.std::_Compressed_pair"* %this) #0 comdat align 2 {
entry:
  %this.addr = alloca %"class.std::_Compressed_pair"*, align 4
  store %"class.std::_Compressed_pair"* %this, %"class.std::_Compressed_pair"** %this.addr, align 4
  %this1 = load %"class.std::_Compressed_pair"*, %"class.std::_Compressed_pair"** %this.addr, align 4
  %_Myval2 = getelementptr inbounds %"class.std::_Compressed_pair", %"class.std::_Compressed_pair"* %this1, i32 0, i32 0
  ret %"class.std::_String_val"* %_Myval2
}

; Function Attrs: nounwind
define linkonce_odr x86_thiscallcc dereferenceable(1) %"struct.std::_Wrap_alloc"* @"\01?_Get_first@?$_Compressed_pair@U?$_Wrap_alloc@V?$allocator@D@std@@@std@@V?$_String_val@U?$_Simple_types@D@std@@@2@$00@std@@QAEAAU?$_Wrap_alloc@V?$allocator@D@std@@@2@XZ"(%"class.std::_Compressed_pair"* %this) #0 comdat align 2 {
entry:
  %this.addr = alloca %"class.std::_Compressed_pair"*, align 4
  store %"class.std::_Compressed_pair"* %this, %"class.std::_Compressed_pair"** %this.addr, align 4
  %this1 = load %"class.std::_Compressed_pair"*, %"class.std::_Compressed_pair"** %this.addr, align 4
  %0 = bitcast %"class.std::_Compressed_pair"* %this1 to %"struct.std::_Wrap_alloc"*
  ret %"struct.std::_Wrap_alloc"* %0
}

; Function Attrs: nounwind
define linkonce_odr void @"\01??$destroy@PAD@?$allocator_traits@V?$allocator@D@std@@@std@@SAXAAV?$allocator@D@1@PAPAD@Z"(%"class.std::allocator"* dereferenceable(1) %_Al, i8** %_Ptr) #0 comdat align 2 {
entry:
  %_Ptr.addr = alloca i8**, align 4
  %_Al.addr = alloca %"class.std::allocator"*, align 4
  store i8** %_Ptr, i8*** %_Ptr.addr, align 4
  store %"class.std::allocator"* %_Al, %"class.std::allocator"** %_Al.addr, align 4
  %0 = load %"class.std::allocator"*, %"class.std::allocator"** %_Al.addr, align 4
  %1 = load i8**, i8*** %_Ptr.addr, align 4
  call x86_thiscallcc void @"\01??$destroy@PAD@?$allocator@D@std@@QAEXPAPAD@Z"(%"class.std::allocator"* %0, i8** %1)
  ret void
}

; Function Attrs: nounwind
define linkonce_odr x86_thiscallcc void @"\01??$destroy@PAD@?$allocator@D@std@@QAEXPAPAD@Z"(%"class.std::allocator"* %this, i8** %_Ptr) #0 comdat align 2 {
entry:
  %_Ptr.addr = alloca i8**, align 4
  %this.addr = alloca %"class.std::allocator"*, align 4
  store i8** %_Ptr, i8*** %_Ptr.addr, align 4
  store %"class.std::allocator"* %this, %"class.std::allocator"** %this.addr, align 4
  %this1 = load %"class.std::allocator"*, %"class.std::allocator"** %this.addr, align 4
  %0 = load i8**, i8*** %_Ptr.addr, align 4
  ret void
}

; Function Attrs: argmemonly nounwind
declare void @llvm.memcpy.p0i8.p0i8.i32(i8* nocapture, i8* nocapture readonly, i32, i32, i1) #4

; Function Attrs: inlinehint nounwind
define linkonce_odr i8* @"\01??$_Addressof@D@std@@YAPADAADU?$integral_constant@_N$0A@@0@@Z"(i8* dereferenceable(1) %_Val, %"struct.std::integral_constant"* byval align 4) #2 comdat {
entry:
  %_Val.addr = alloca i8*, align 4
  store i8* %_Val, i8** %_Val.addr, align 4
  %1 = load i8*, i8** %_Val.addr, align 4
  ret i8* %1
}

; Function Attrs: nounwind
define linkonce_odr x86_thiscallcc void @"\01?deallocate@?$allocator@D@std@@QAEXPADI@Z"(%"class.std::allocator"* %this, i8* %_Ptr, i32 %_Count) #0 comdat align 2 {
entry:
  %_Count.addr = alloca i32, align 4
  %_Ptr.addr = alloca i8*, align 4
  %this.addr = alloca %"class.std::allocator"*, align 4
  store i32 %_Count, i32* %_Count.addr, align 4
  store i8* %_Ptr, i8** %_Ptr.addr, align 4
  store %"class.std::allocator"* %this, %"class.std::allocator"** %this.addr, align 4
  %this1 = load %"class.std::allocator"*, %"class.std::allocator"** %this.addr, align 4
  %0 = load i32, i32* %_Count.addr, align 4
  %1 = load i8*, i8** %_Ptr.addr, align 4
  call void @"\01?_Deallocate@std@@YAXPAXII@Z"(i8* %1, i32 %0, i32 1)
  ret void
}

; Function Attrs: inlinehint nounwind
define linkonce_odr void @"\01?_Deallocate@std@@YAXPAXII@Z"(i8* %_Ptr, i32 %_Count, i32 %_Sz) #2 comdat {
entry:
  %_Sz.addr = alloca i32, align 4
  %_Count.addr = alloca i32, align 4
  %_Ptr.addr = alloca i8*, align 4
  %_User_size = alloca i32, align 4
  %_Ptr_user = alloca i32, align 4
  %_Ptr_ptr = alloca i32, align 4
  %_Ptr_container = alloca i32, align 4
  store i32 %_Sz, i32* %_Sz.addr, align 4
  store i32 %_Count, i32* %_Count.addr, align 4
  store i8* %_Ptr, i8** %_Ptr.addr, align 4
  %0 = load i32, i32* %_Count.addr, align 4
  %1 = load i32, i32* %_Sz.addr, align 4
  %div = udiv i32 -1, %1
  %cmp = icmp ule i32 %0, %div
  br i1 %cmp, label %if.end, label %if.then

if.then:                                          ; preds = %entry
  call void @_invalid_parameter_noinfo_noreturn() #13
  unreachable

if.end:                                           ; preds = %entry
  %2 = load i32, i32* %_Count.addr, align 4
  %3 = load i32, i32* %_Sz.addr, align 4
  %mul = mul i32 %2, %3
  store i32 %mul, i32* %_User_size, align 4
  %4 = load i32, i32* %_User_size, align 4
  %cmp1 = icmp ule i32 4096, %4
  br i1 %cmp1, label %if.then2, label %if.end17

if.then2:                                         ; preds = %if.end
  %5 = load i8*, i8** %_Ptr.addr, align 4
  %6 = ptrtoint i8* %5 to i32
  store i32 %6, i32* %_Ptr_user, align 4
  %7 = load i32, i32* %_Ptr_user, align 4
  %and = and i32 %7, 31
  %cmp3 = icmp eq i32 %and, 0
  br i1 %cmp3, label %if.end5, label %if.then4

if.then4:                                         ; preds = %if.then2
  call void @_invalid_parameter_noinfo_noreturn() #13
  unreachable

if.end5:                                          ; preds = %if.then2
  %8 = load i32, i32* %_Ptr_user, align 4
  %sub = sub i32 %8, 4
  store i32 %sub, i32* %_Ptr_ptr, align 4
  %9 = load i32, i32* %_Ptr_ptr, align 4
  %10 = inttoptr i32 %9 to i32*
  %11 = load i32, i32* %10, align 4
  store i32 %11, i32* %_Ptr_container, align 4
  %12 = load i32, i32* %_Ptr_container, align 4
  %13 = load i32, i32* %_Ptr_user, align 4
  %cmp6 = icmp ult i32 %12, %13
  br i1 %cmp6, label %if.end8, label %if.then7

if.then7:                                         ; preds = %if.end5
  call void @_invalid_parameter_noinfo_noreturn() #13
  unreachable

if.end8:                                          ; preds = %if.end5
  %14 = load i32, i32* %_Ptr_user, align 4
  %15 = load i32, i32* %_Ptr_container, align 4
  %sub9 = sub i32 %14, %15
  %cmp10 = icmp ule i32 4, %sub9
  br i1 %cmp10, label %if.end12, label %if.then11

if.then11:                                        ; preds = %if.end8
  call void @_invalid_parameter_noinfo_noreturn() #13
  unreachable

if.end12:                                         ; preds = %if.end8
  %16 = load i32, i32* %_Ptr_user, align 4
  %17 = load i32, i32* %_Ptr_container, align 4
  %sub13 = sub i32 %16, %17
  %cmp14 = icmp ule i32 %sub13, 35
  br i1 %cmp14, label %if.end16, label %if.then15

if.then15:                                        ; preds = %if.end12
  call void @_invalid_parameter_noinfo_noreturn() #13
  unreachable

if.end16:                                         ; preds = %if.end12
  %18 = load i32, i32* %_Ptr_container, align 4
  %19 = inttoptr i32 %18 to i8*
  store i8* %19, i8** %_Ptr.addr, align 4
  br label %if.end17

if.end17:                                         ; preds = %if.end16, %if.end
  %20 = load i8*, i8** %_Ptr.addr, align 4
  call void @"\01??3@YAXPAX@Z"(i8* %20) #9
  ret void
}

; Function Attrs: noreturn
declare void @_invalid_parameter_noinfo_noreturn() #5

; Function Attrs: nobuiltin nounwind
declare void @"\01??3@YAXPAX@Z"(i8*) #6

; Function Attrs: nounwind
define linkonce_odr void @"\01?assign@?$char_traits@D@std@@SAXAADABD@Z"(i8* dereferenceable(1) %_Left, i8* dereferenceable(1) %_Right) #0 comdat align 2 {
entry:
  %_Right.addr = alloca i8*, align 4
  %_Left.addr = alloca i8*, align 4
  store i8* %_Right, i8** %_Right.addr, align 4
  store i8* %_Left, i8** %_Left.addr, align 4
  %0 = load i8*, i8** %_Right.addr, align 4
  %1 = load i8, i8* %0, align 1
  %2 = load i8*, i8** %_Left.addr, align 4
  store i8 %1, i8* %2, align 1
  ret void
}

; Function Attrs: nounwind
define linkonce_odr x86_thiscallcc dereferenceable(4) i32* @"\01?_Mysize@?$_String_alloc@U?$_String_base_types@DV?$allocator@D@std@@@std@@@std@@QAEAAIXZ"(%"class.std::_String_alloc"* %this) #0 comdat align 2 {
entry:
  %this.addr = alloca %"class.std::_String_alloc"*, align 4
  store %"class.std::_String_alloc"* %this, %"class.std::_String_alloc"** %this.addr, align 4
  %this1 = load %"class.std::_String_alloc"*, %"class.std::_String_alloc"** %this.addr, align 4
  %call = call x86_thiscallcc dereferenceable(24) %"class.std::_String_val"* @"\01?_Get_data@?$_String_alloc@U?$_String_base_types@DV?$allocator@D@std@@@std@@@std@@QAEAAV?$_String_val@U?$_Simple_types@D@std@@@2@XZ"(%"class.std::_String_alloc"* %this1) #9
  %_Mysize = getelementptr inbounds %"class.std::_String_val", %"class.std::_String_val"* %call, i32 0, i32 1
  ret i32* %_Mysize
}

; Function Attrs: nounwind
define linkonce_odr x86_thiscallcc i8* @"\01?_Myptr@?$_String_alloc@U?$_String_base_types@DV?$allocator@D@std@@@std@@@std@@QAEPADXZ"(%"class.std::_String_alloc"* %this) #0 comdat align 2 {
entry:
  %this.addr = alloca %"class.std::_String_alloc"*, align 4
  store %"class.std::_String_alloc"* %this, %"class.std::_String_alloc"** %this.addr, align 4
  %this1 = load %"class.std::_String_alloc"*, %"class.std::_String_alloc"** %this.addr, align 4
  %call = call x86_thiscallcc dereferenceable(24) %"class.std::_String_val"* @"\01?_Get_data@?$_String_alloc@U?$_String_base_types@DV?$allocator@D@std@@@std@@@std@@QAEAAV?$_String_val@U?$_Simple_types@D@std@@@2@XZ"(%"class.std::_String_alloc"* %this1) #9
  %call2 = call x86_thiscallcc i8* @"\01?_Myptr@?$_String_val@U?$_Simple_types@D@std@@@std@@QAEPADXZ"(%"class.std::_String_val"* %call)
  ret i8* %call2
}

; Function Attrs: nounwind
define linkonce_odr x86_thiscallcc i8* @"\01?_Myptr@?$_String_val@U?$_Simple_types@D@std@@@std@@QAEPADXZ"(%"class.std::_String_val"* %this) #0 comdat align 2 {
entry:
  %this.addr = alloca %"class.std::_String_val"*, align 4
  store %"class.std::_String_val"* %this, %"class.std::_String_val"** %this.addr, align 4
  %this1 = load %"class.std::_String_val"*, %"class.std::_String_val"** %this.addr, align 4
  %_Myres = getelementptr inbounds %"class.std::_String_val", %"class.std::_String_val"* %this1, i32 0, i32 2
  %0 = load i32, i32* %_Myres, align 4
  %cmp = icmp ule i32 16, %0
  br i1 %cmp, label %cond.true, label %cond.false

cond.true:                                        ; preds = %entry
  %_Bx = getelementptr inbounds %"class.std::_String_val", %"class.std::_String_val"* %this1, i32 0, i32 0
  %_Ptr = bitcast %"union.std::_String_val<std::_Simple_types<char> >::_Bxty"* %_Bx to i8**
  %1 = load i8*, i8** %_Ptr, align 4
  %call = call i8* @"\01??$addressof@D@std@@YAPADAAD@Z"(i8* dereferenceable(1) %1) #9
  br label %cond.end

cond.false:                                       ; preds = %entry
  %_Bx2 = getelementptr inbounds %"class.std::_String_val", %"class.std::_String_val"* %this1, i32 0, i32 0
  %_Buf = bitcast %"union.std::_String_val<std::_Simple_types<char> >::_Bxty"* %_Bx2 to [16 x i8]*
  %arraydecay = getelementptr inbounds [16 x i8], [16 x i8]* %_Buf, i32 0, i32 0
  br label %cond.end

cond.end:                                         ; preds = %cond.false, %cond.true
  %cond = phi i8* [ %call, %cond.true ], [ %arraydecay, %cond.false ]
  ret i8* %cond
}

; Function Attrs: nounwind
define linkonce_odr x86_thiscallcc i8* @"\01?_Myptr@?$_String_alloc@U?$_String_base_types@DV?$allocator@D@std@@@std@@@std@@QBEPBDXZ"(%"class.std::_String_alloc"* %this) #0 comdat align 2 {
entry:
  %this.addr = alloca %"class.std::_String_alloc"*, align 4
  store %"class.std::_String_alloc"* %this, %"class.std::_String_alloc"** %this.addr, align 4
  %this1 = load %"class.std::_String_alloc"*, %"class.std::_String_alloc"** %this.addr, align 4
  %call = call x86_thiscallcc dereferenceable(24) %"class.std::_String_val"* @"\01?_Get_data@?$_String_alloc@U?$_String_base_types@DV?$allocator@D@std@@@std@@@std@@QBEABV?$_String_val@U?$_Simple_types@D@std@@@2@XZ"(%"class.std::_String_alloc"* %this1) #9
  %call2 = call x86_thiscallcc i8* @"\01?_Myptr@?$_String_val@U?$_Simple_types@D@std@@@std@@QBEPBDXZ"(%"class.std::_String_val"* %call)
  ret i8* %call2
}

; Function Attrs: nounwind
define linkonce_odr x86_thiscallcc dereferenceable(24) %"class.std::_String_val"* @"\01?_Get_data@?$_String_alloc@U?$_String_base_types@DV?$allocator@D@std@@@std@@@std@@QBEABV?$_String_val@U?$_Simple_types@D@std@@@2@XZ"(%"class.std::_String_alloc"* %this) #0 comdat align 2 {
entry:
  %this.addr = alloca %"class.std::_String_alloc"*, align 4
  store %"class.std::_String_alloc"* %this, %"class.std::_String_alloc"** %this.addr, align 4
  %this1 = load %"class.std::_String_alloc"*, %"class.std::_String_alloc"** %this.addr, align 4
  %_Mypair = getelementptr inbounds %"class.std::_String_alloc", %"class.std::_String_alloc"* %this1, i32 0, i32 0
  %call = call x86_thiscallcc dereferenceable(24) %"class.std::_String_val"* @"\01?_Get_second@?$_Compressed_pair@U?$_Wrap_alloc@V?$allocator@D@std@@@std@@V?$_String_val@U?$_Simple_types@D@std@@@2@$00@std@@QBEABV?$_String_val@U?$_Simple_types@D@std@@@2@XZ"(%"class.std::_Compressed_pair"* %_Mypair) #9
  ret %"class.std::_String_val"* %call
}

; Function Attrs: nounwind
define linkonce_odr x86_thiscallcc i8* @"\01?_Myptr@?$_String_val@U?$_Simple_types@D@std@@@std@@QBEPBDXZ"(%"class.std::_String_val"* %this) #0 comdat align 2 {
entry:
  %this.addr = alloca %"class.std::_String_val"*, align 4
  store %"class.std::_String_val"* %this, %"class.std::_String_val"** %this.addr, align 4
  %this1 = load %"class.std::_String_val"*, %"class.std::_String_val"** %this.addr, align 4
  %_Myres = getelementptr inbounds %"class.std::_String_val", %"class.std::_String_val"* %this1, i32 0, i32 2
  %0 = load i32, i32* %_Myres, align 4
  %cmp = icmp ule i32 16, %0
  br i1 %cmp, label %cond.true, label %cond.false

cond.true:                                        ; preds = %entry
  %_Bx = getelementptr inbounds %"class.std::_String_val", %"class.std::_String_val"* %this1, i32 0, i32 0
  %_Ptr = bitcast %"union.std::_String_val<std::_Simple_types<char> >::_Bxty"* %_Bx to i8**
  %1 = load i8*, i8** %_Ptr, align 4
  %call = call i8* @"\01??$addressof@D@std@@YAPADAAD@Z"(i8* dereferenceable(1) %1) #9
  br label %cond.end

cond.false:                                       ; preds = %entry
  %_Bx2 = getelementptr inbounds %"class.std::_String_val", %"class.std::_String_val"* %this1, i32 0, i32 0
  %_Buf = bitcast %"union.std::_String_val<std::_Simple_types<char> >::_Bxty"* %_Bx2 to [16 x i8]*
  %arraydecay = getelementptr inbounds [16 x i8], [16 x i8]* %_Buf, i32 0, i32 0
  br label %cond.end

cond.end:                                         ; preds = %cond.false, %cond.true
  %cond = phi i8* [ %call, %cond.true ], [ %arraydecay, %cond.false ]
  ret i8* %cond
}

; Function Attrs: nounwind
define linkonce_odr x86_thiscallcc dereferenceable(24) %"class.std::_String_val"* @"\01?_Get_second@?$_Compressed_pair@U?$_Wrap_alloc@V?$allocator@D@std@@@std@@V?$_String_val@U?$_Simple_types@D@std@@@2@$00@std@@QBEABV?$_String_val@U?$_Simple_types@D@std@@@2@XZ"(%"class.std::_Compressed_pair"* %this) #0 comdat align 2 {
entry:
  %this.addr = alloca %"class.std::_Compressed_pair"*, align 4
  store %"class.std::_Compressed_pair"* %this, %"class.std::_Compressed_pair"** %this.addr, align 4
  %this1 = load %"class.std::_Compressed_pair"*, %"class.std::_Compressed_pair"** %this.addr, align 4
  %_Myval2 = getelementptr inbounds %"class.std::_Compressed_pair", %"class.std::_Compressed_pair"* %this1, i32 0, i32 0
  ret %"class.std::_String_val"* %_Myval2
}

; Function Attrs: nounwind
define linkonce_odr x86_thiscallcc %"class.std::allocator"* @"\01??0?$allocator@D@std@@QAE@XZ"(%"class.std::allocator"* returned %this) unnamed_addr #0 comdat align 2 {
entry:
  %this.addr = alloca %"class.std::allocator"*, align 4
  store %"class.std::allocator"* %this, %"class.std::allocator"** %this.addr, align 4
  %this1 = load %"class.std::allocator"*, %"class.std::allocator"** %this.addr, align 4
  ret %"class.std::allocator"* %this1
}

; Function Attrs: nounwind
define linkonce_odr x86_thiscallcc %"class.std::_String_alloc"* @"\01??0?$_String_alloc@U?$_String_base_types@DV?$allocator@D@std@@@std@@@std@@QAE@ABV?$allocator@D@1@@Z"(%"class.std::_String_alloc"* returned %this, %"class.std::allocator"* dereferenceable(1) %_Al) unnamed_addr #0 comdat align 2 {
entry:
  %_Al.addr = alloca %"class.std::allocator"*, align 4
  %this.addr = alloca %"class.std::_String_alloc"*, align 4
  %agg.tmp = alloca %"struct.std::_One_then_variadic_args_t", align 4
  store %"class.std::allocator"* %_Al, %"class.std::allocator"** %_Al.addr, align 4
  store %"class.std::_String_alloc"* %this, %"class.std::_String_alloc"** %this.addr, align 4
  %this1 = load %"class.std::_String_alloc"*, %"class.std::_String_alloc"** %this.addr, align 4
  %_Mypair = getelementptr inbounds %"class.std::_String_alloc", %"class.std::_String_alloc"* %this1, i32 0, i32 0
  %0 = load %"class.std::allocator"*, %"class.std::allocator"** %_Al.addr, align 4
  %call = call x86_thiscallcc %"class.std::_Compressed_pair"* @"\01??$?0ABV?$allocator@D@std@@$$V@?$_Compressed_pair@U?$_Wrap_alloc@V?$allocator@D@std@@@std@@V?$_String_val@U?$_Simple_types@D@std@@@2@$00@std@@QAE@U_One_then_variadic_args_t@1@ABV?$allocator@D@1@@Z"(%"class.std::_Compressed_pair"* %_Mypair, %"struct.std::_One_then_variadic_args_t"* byval align 4 %agg.tmp, %"class.std::allocator"* dereferenceable(1) %0)
  ret %"class.std::_String_alloc"* %this1
}

; Function Attrs: nounwind
define linkonce_odr x86_thiscallcc %"class.std::_Compressed_pair"* @"\01??$?0ABV?$allocator@D@std@@$$V@?$_Compressed_pair@U?$_Wrap_alloc@V?$allocator@D@std@@@std@@V?$_String_val@U?$_Simple_types@D@std@@@2@$00@std@@QAE@U_One_then_variadic_args_t@1@ABV?$allocator@D@1@@Z"(%"class.std::_Compressed_pair"* returned %this, %"struct.std::_One_then_variadic_args_t"* byval align 4, %"class.std::allocator"* dereferenceable(1) %_Val1) unnamed_addr #0 comdat align 2 {
entry:
  %_Val1.addr = alloca %"class.std::allocator"*, align 4
  %this.addr = alloca %"class.std::_Compressed_pair"*, align 4
  store %"class.std::allocator"* %_Val1, %"class.std::allocator"** %_Val1.addr, align 4
  store %"class.std::_Compressed_pair"* %this, %"class.std::_Compressed_pair"** %this.addr, align 4
  %this1 = load %"class.std::_Compressed_pair"*, %"class.std::_Compressed_pair"** %this.addr, align 4
  %1 = bitcast %"class.std::_Compressed_pair"* %this1 to %"struct.std::_Wrap_alloc"*
  %2 = load %"class.std::allocator"*, %"class.std::allocator"** %_Val1.addr, align 4
  %call = call dereferenceable(1) %"class.std::allocator"* @"\01??$forward@ABV?$allocator@D@std@@@std@@YAABV?$allocator@D@0@ABV10@@Z"(%"class.std::allocator"* dereferenceable(1) %2) #9
  %call2 = call x86_thiscallcc %"struct.std::_Wrap_alloc"* @"\01??0?$_Wrap_alloc@V?$allocator@D@std@@@std@@QAE@ABV?$allocator@D@1@@Z"(%"struct.std::_Wrap_alloc"* %1, %"class.std::allocator"* dereferenceable(1) %call) #9
  %_Myval2 = getelementptr inbounds %"class.std::_Compressed_pair", %"class.std::_Compressed_pair"* %this1, i32 0, i32 0
  %call3 = call x86_thiscallcc %"class.std::_String_val"* @"\01??0?$_String_val@U?$_Simple_types@D@std@@@std@@QAE@XZ"(%"class.std::_String_val"* %_Myval2)
  ret %"class.std::_Compressed_pair"* %this1
}

; Function Attrs: inlinehint nounwind
define linkonce_odr dereferenceable(1) %"class.std::allocator"* @"\01??$forward@ABV?$allocator@D@std@@@std@@YAABV?$allocator@D@0@ABV10@@Z"(%"class.std::allocator"* dereferenceable(1) %_Arg) #2 comdat {
entry:
  %_Arg.addr = alloca %"class.std::allocator"*, align 4
  store %"class.std::allocator"* %_Arg, %"class.std::allocator"** %_Arg.addr, align 4
  %0 = load %"class.std::allocator"*, %"class.std::allocator"** %_Arg.addr, align 4
  ret %"class.std::allocator"* %0
}

; Function Attrs: nounwind
define linkonce_odr x86_thiscallcc %"struct.std::_Wrap_alloc"* @"\01??0?$_Wrap_alloc@V?$allocator@D@std@@@std@@QAE@ABV?$allocator@D@1@@Z"(%"struct.std::_Wrap_alloc"* returned %this, %"class.std::allocator"* dereferenceable(1) %_Right) unnamed_addr #0 comdat align 2 {
entry:
  %_Right.addr = alloca %"class.std::allocator"*, align 4
  %this.addr = alloca %"struct.std::_Wrap_alloc"*, align 4
  store %"class.std::allocator"* %_Right, %"class.std::allocator"** %_Right.addr, align 4
  store %"struct.std::_Wrap_alloc"* %this, %"struct.std::_Wrap_alloc"** %this.addr, align 4
  %this1 = load %"struct.std::_Wrap_alloc"*, %"struct.std::_Wrap_alloc"** %this.addr, align 4
  %0 = bitcast %"struct.std::_Wrap_alloc"* %this1 to %"class.std::allocator"*
  %1 = load %"class.std::allocator"*, %"class.std::allocator"** %_Right.addr, align 4
  %call = call x86_thiscallcc %"class.std::allocator"* @"\01??0?$allocator@D@std@@QAE@ABV01@@Z"(%"class.std::allocator"* %0, %"class.std::allocator"* dereferenceable(1) %1) #9
  ret %"struct.std::_Wrap_alloc"* %this1
}

; Function Attrs: nounwind
define linkonce_odr x86_thiscallcc %"class.std::_String_val"* @"\01??0?$_String_val@U?$_Simple_types@D@std@@@std@@QAE@XZ"(%"class.std::_String_val"* returned %this) unnamed_addr #0 comdat align 2 {
entry:
  %this.addr = alloca %"class.std::_String_val"*, align 4
  store %"class.std::_String_val"* %this, %"class.std::_String_val"** %this.addr, align 4
  %this1 = load %"class.std::_String_val"*, %"class.std::_String_val"** %this.addr, align 4
  %0 = bitcast %"class.std::_String_val"* %this1 to %"struct.std::_Container_base0"*
  %_Bx = getelementptr inbounds %"class.std::_String_val", %"class.std::_String_val"* %this1, i32 0, i32 0
  %_Mysize = getelementptr inbounds %"class.std::_String_val", %"class.std::_String_val"* %this1, i32 0, i32 1
  store i32 0, i32* %_Mysize, align 4
  %_Myres = getelementptr inbounds %"class.std::_String_val", %"class.std::_String_val"* %this1, i32 0, i32 2
  store i32 0, i32* %_Myres, align 4
  ret %"class.std::_String_val"* %this1
}

; Function Attrs: nounwind
define linkonce_odr x86_thiscallcc %"class.std::allocator"* @"\01??0?$allocator@D@std@@QAE@ABV01@@Z"(%"class.std::allocator"* returned %this, %"class.std::allocator"* dereferenceable(1)) unnamed_addr #0 comdat align 2 {
entry:
  %.addr = alloca %"class.std::allocator"*, align 4
  %this.addr = alloca %"class.std::allocator"*, align 4
  store %"class.std::allocator"* %0, %"class.std::allocator"** %.addr, align 4
  store %"class.std::allocator"* %this, %"class.std::allocator"** %this.addr, align 4
  %this1 = load %"class.std::allocator"*, %"class.std::allocator"** %this.addr, align 4
  ret %"class.std::allocator"* %this1
}

; Function Attrs: nounwind
define linkonce_odr x86_thiscallcc dereferenceable(24) %"class.std::basic_string"* @"\01?append@?$basic_string@DU?$char_traits@D@std@@V?$allocator@D@2@@std@@QAEAAV12@PBD@Z"(%"class.std::basic_string"* %this, i8* %_Ptr) #0 comdat align 2 {
entry:
  %_Ptr.addr = alloca i8*, align 4
  %this.addr = alloca %"class.std::basic_string"*, align 4
  store i8* %_Ptr, i8** %_Ptr.addr, align 4
  store %"class.std::basic_string"* %this, %"class.std::basic_string"** %this.addr, align 4
  %this1 = load %"class.std::basic_string"*, %"class.std::basic_string"** %this.addr, align 4
  %0 = load i8*, i8** %_Ptr.addr, align 4
  %call = call i32 @"\01?length@?$char_traits@D@std@@SAIPBD@Z"(i8* %0)
  %1 = load i8*, i8** %_Ptr.addr, align 4
  %call2 = call x86_thiscallcc dereferenceable(24) %"class.std::basic_string"* @"\01?append@?$basic_string@DU?$char_traits@D@std@@V?$allocator@D@2@@std@@QAEAAV12@PBDI@Z"(%"class.std::basic_string"* %this1, i8* %1, i32 %call)
  ret %"class.std::basic_string"* %call2
}

; Function Attrs: nounwind
define linkonce_odr x86_thiscallcc dereferenceable(24) %"class.std::basic_string"* @"\01?append@?$basic_string@DU?$char_traits@D@std@@V?$allocator@D@2@@std@@QAEAAV12@PBDI@Z"(%"class.std::basic_string"* %this, i8* %_Ptr, i32 %_Count) #0 comdat align 2 {
entry:
  %retval = alloca %"class.std::basic_string"*, align 4
  %_Count.addr = alloca i32, align 4
  %_Ptr.addr = alloca i8*, align 4
  %this.addr = alloca %"class.std::basic_string"*, align 4
  %_Num = alloca i32, align 4
  store i32 %_Count, i32* %_Count.addr, align 4
  store i8* %_Ptr, i8** %_Ptr.addr, align 4
  store %"class.std::basic_string"* %this, %"class.std::basic_string"** %this.addr, align 4
  %this1 = load %"class.std::basic_string"*, %"class.std::basic_string"** %this.addr, align 4
  %0 = load i8*, i8** %_Ptr.addr, align 4
  %call = call x86_thiscallcc zeroext i1 @"\01?_Inside@?$basic_string@DU?$char_traits@D@std@@V?$allocator@D@2@@std@@QAE_NPBD@Z"(%"class.std::basic_string"* %this1, i8* %0)
  br i1 %call, label %if.then, label %if.end

if.then:                                          ; preds = %entry
  %1 = load i32, i32* %_Count.addr, align 4
  %2 = load i8*, i8** %_Ptr.addr, align 4
  %3 = bitcast %"class.std::basic_string"* %this1 to %"class.std::_String_alloc"*
  %call2 = call x86_thiscallcc i8* @"\01?_Myptr@?$_String_alloc@U?$_String_base_types@DV?$allocator@D@std@@@std@@@std@@QAEPADXZ"(%"class.std::_String_alloc"* %3)
  %sub.ptr.lhs.cast = ptrtoint i8* %2 to i32
  %sub.ptr.rhs.cast = ptrtoint i8* %call2 to i32
  %sub.ptr.sub = sub i32 %sub.ptr.lhs.cast, %sub.ptr.rhs.cast
  %call3 = call x86_thiscallcc dereferenceable(24) %"class.std::basic_string"* @"\01?append@?$basic_string@DU?$char_traits@D@std@@V?$allocator@D@2@@std@@QAEAAV12@ABV12@II@Z"(%"class.std::basic_string"* %this1, %"class.std::basic_string"* dereferenceable(24) %this1, i32 %sub.ptr.sub, i32 %1)
  store %"class.std::basic_string"* %call3, %"class.std::basic_string"** %retval, align 4
  br label %return

if.end:                                           ; preds = %entry
  %4 = bitcast %"class.std::basic_string"* %this1 to %"class.std::_String_alloc"*
  %call4 = call x86_thiscallcc dereferenceable(4) i32* @"\01?_Mysize@?$_String_alloc@U?$_String_base_types@DV?$allocator@D@std@@@std@@@std@@QAEAAIXZ"(%"class.std::_String_alloc"* %4) #9
  %5 = load i32, i32* %call4, align 4
  %sub = sub i32 -1, %5
  %6 = load i32, i32* %_Count.addr, align 4
  %cmp = icmp ule i32 %sub, %6
  br i1 %cmp, label %if.then5, label %if.end6

if.then5:                                         ; preds = %if.end
  call x86_thiscallcc void @"\01?_Xlen@?$basic_string@DU?$char_traits@D@std@@V?$allocator@D@2@@std@@QBEXXZ"(%"class.std::basic_string"* %this1) #13
  unreachable

if.end6:                                          ; preds = %if.end
  %7 = load i32, i32* %_Count.addr, align 4
  %cmp7 = icmp ult i32 0, %7
  br i1 %cmp7, label %land.lhs.true, label %if.end14

land.lhs.true:                                    ; preds = %if.end6
  %8 = bitcast %"class.std::basic_string"* %this1 to %"class.std::_String_alloc"*
  %call8 = call x86_thiscallcc dereferenceable(4) i32* @"\01?_Mysize@?$_String_alloc@U?$_String_base_types@DV?$allocator@D@std@@@std@@@std@@QAEAAIXZ"(%"class.std::_String_alloc"* %8) #9
  %9 = load i32, i32* %call8, align 4
  %10 = load i32, i32* %_Count.addr, align 4
  %add = add i32 %9, %10
  store i32 %add, i32* %_Num, align 4
  %call9 = call x86_thiscallcc zeroext i1 @"\01?_Grow@?$basic_string@DU?$char_traits@D@std@@V?$allocator@D@2@@std@@QAE_NI_N@Z"(%"class.std::basic_string"* %this1, i32 %add, i1 zeroext false)
  br i1 %call9, label %if.then10, label %if.end14

if.then10:                                        ; preds = %land.lhs.true
  %11 = load i32, i32* %_Count.addr, align 4
  %12 = load i8*, i8** %_Ptr.addr, align 4
  %13 = bitcast %"class.std::basic_string"* %this1 to %"class.std::_String_alloc"*
  %call11 = call x86_thiscallcc i8* @"\01?_Myptr@?$_String_alloc@U?$_String_base_types@DV?$allocator@D@std@@@std@@@std@@QAEPADXZ"(%"class.std::_String_alloc"* %13)
  %14 = bitcast %"class.std::basic_string"* %this1 to %"class.std::_String_alloc"*
  %call12 = call x86_thiscallcc dereferenceable(4) i32* @"\01?_Mysize@?$_String_alloc@U?$_String_base_types@DV?$allocator@D@std@@@std@@@std@@QAEAAIXZ"(%"class.std::_String_alloc"* %14) #9
  %15 = load i32, i32* %call12, align 4
  %add.ptr = getelementptr inbounds i8, i8* %call11, i32 %15
  %call13 = call i8* @"\01?copy@?$char_traits@D@std@@SAPADPADPBDI@Z"(i8* %add.ptr, i8* %12, i32 %11)
  %16 = load i32, i32* %_Num, align 4
  call x86_thiscallcc void @"\01?_Eos@?$basic_string@DU?$char_traits@D@std@@V?$allocator@D@2@@std@@QAEXI@Z"(%"class.std::basic_string"* %this1, i32 %16)
  br label %if.end14

if.end14:                                         ; preds = %if.then10, %land.lhs.true, %if.end6
  store %"class.std::basic_string"* %this1, %"class.std::basic_string"** %retval, align 4
  br label %return

return:                                           ; preds = %if.end14, %if.then
  %17 = load %"class.std::basic_string"*, %"class.std::basic_string"** %retval, align 4
  ret %"class.std::basic_string"* %17
}

; Function Attrs: nounwind
define linkonce_odr i32 @"\01?length@?$char_traits@D@std@@SAIPBD@Z"(i8* %_First) #0 comdat align 2 {
entry:
  %_First.addr = alloca i8*, align 4
  store i8* %_First, i8** %_First.addr, align 4
  %0 = load i8*, i8** %_First.addr, align 4
  %1 = load i8, i8* %0, align 1
  %conv = sext i8 %1 to i32
  %cmp = icmp eq i32 %conv, 0
  br i1 %cmp, label %cond.true, label %cond.false

cond.true:                                        ; preds = %entry
  br label %cond.end

cond.false:                                       ; preds = %entry
  %2 = load i8*, i8** %_First.addr, align 4
  %call = call i32 @strlen(i8* %2)
  br label %cond.end

cond.end:                                         ; preds = %cond.false, %cond.true
  %cond = phi i32 [ 0, %cond.true ], [ %call, %cond.false ]
  ret i32 %cond
}

; Function Attrs: nounwind
define linkonce_odr x86_thiscallcc zeroext i1 @"\01?_Inside@?$basic_string@DU?$char_traits@D@std@@V?$allocator@D@2@@std@@QAE_NPBD@Z"(%"class.std::basic_string"* %this, i8* %_Ptr) #0 comdat align 2 {
entry:
  %retval = alloca i1, align 1
  %_Ptr.addr = alloca i8*, align 4
  %this.addr = alloca %"class.std::basic_string"*, align 4
  store i8* %_Ptr, i8** %_Ptr.addr, align 4
  store %"class.std::basic_string"* %this, %"class.std::basic_string"** %this.addr, align 4
  %this1 = load %"class.std::basic_string"*, %"class.std::basic_string"** %this.addr, align 4
  %0 = load i8*, i8** %_Ptr.addr, align 4
  %cmp = icmp eq i8* %0, null
  br i1 %cmp, label %if.then, label %lor.lhs.false

lor.lhs.false:                                    ; preds = %entry
  %1 = load i8*, i8** %_Ptr.addr, align 4
  %2 = bitcast %"class.std::basic_string"* %this1 to %"class.std::_String_alloc"*
  %call = call x86_thiscallcc i8* @"\01?_Myptr@?$_String_alloc@U?$_String_base_types@DV?$allocator@D@std@@@std@@@std@@QAEPADXZ"(%"class.std::_String_alloc"* %2)
  %cmp2 = icmp ult i8* %1, %call
  br i1 %cmp2, label %if.then, label %lor.lhs.false3

lor.lhs.false3:                                   ; preds = %lor.lhs.false
  %3 = bitcast %"class.std::basic_string"* %this1 to %"class.std::_String_alloc"*
  %call4 = call x86_thiscallcc i8* @"\01?_Myptr@?$_String_alloc@U?$_String_base_types@DV?$allocator@D@std@@@std@@@std@@QAEPADXZ"(%"class.std::_String_alloc"* %3)
  %4 = bitcast %"class.std::basic_string"* %this1 to %"class.std::_String_alloc"*
  %call5 = call x86_thiscallcc dereferenceable(4) i32* @"\01?_Mysize@?$_String_alloc@U?$_String_base_types@DV?$allocator@D@std@@@std@@@std@@QAEAAIXZ"(%"class.std::_String_alloc"* %4) #9
  %5 = load i32, i32* %call5, align 4
  %add.ptr = getelementptr inbounds i8, i8* %call4, i32 %5
  %6 = load i8*, i8** %_Ptr.addr, align 4
  %cmp6 = icmp ule i8* %add.ptr, %6
  br i1 %cmp6, label %if.then, label %if.else

if.then:                                          ; preds = %lor.lhs.false3, %lor.lhs.false, %entry
  store i1 false, i1* %retval, align 1
  br label %return

if.else:                                          ; preds = %lor.lhs.false3
  store i1 true, i1* %retval, align 1
  br label %return

return:                                           ; preds = %if.else, %if.then
  %7 = load i1, i1* %retval, align 1
  ret i1 %7
}

; Function Attrs: nounwind
define linkonce_odr x86_thiscallcc dereferenceable(24) %"class.std::basic_string"* @"\01?append@?$basic_string@DU?$char_traits@D@std@@V?$allocator@D@2@@std@@QAEAAV12@ABV12@II@Z"(%"class.std::basic_string"* %this, %"class.std::basic_string"* dereferenceable(24) %_Right, i32 %_Roff, i32 %_Count) #0 comdat align 2 {
entry:
  %_Count.addr = alloca i32, align 4
  %_Roff.addr = alloca i32, align 4
  %_Right.addr = alloca %"class.std::basic_string"*, align 4
  %this.addr = alloca %"class.std::basic_string"*, align 4
  %_Num = alloca i32, align 4
  store i32 %_Count, i32* %_Count.addr, align 4
  store i32 %_Roff, i32* %_Roff.addr, align 4
  store %"class.std::basic_string"* %_Right, %"class.std::basic_string"** %_Right.addr, align 4
  store %"class.std::basic_string"* %this, %"class.std::basic_string"** %this.addr, align 4
  %this1 = load %"class.std::basic_string"*, %"class.std::basic_string"** %this.addr, align 4
  %0 = load %"class.std::basic_string"*, %"class.std::basic_string"** %_Right.addr, align 4
  %call = call x86_thiscallcc i32 @"\01?size@?$basic_string@DU?$char_traits@D@std@@V?$allocator@D@2@@std@@QBEIXZ"(%"class.std::basic_string"* %0) #9
  %1 = load i32, i32* %_Roff.addr, align 4
  %cmp = icmp ult i32 %call, %1
  br i1 %cmp, label %if.then, label %if.end

if.then:                                          ; preds = %entry
  call x86_thiscallcc void @"\01?_Xran@?$basic_string@DU?$char_traits@D@std@@V?$allocator@D@2@@std@@QBEXXZ"(%"class.std::basic_string"* %this1) #13
  unreachable

if.end:                                           ; preds = %entry
  %2 = load %"class.std::basic_string"*, %"class.std::basic_string"** %_Right.addr, align 4
  %call2 = call x86_thiscallcc i32 @"\01?size@?$basic_string@DU?$char_traits@D@std@@V?$allocator@D@2@@std@@QBEIXZ"(%"class.std::basic_string"* %2) #9
  %3 = load i32, i32* %_Roff.addr, align 4
  %sub = sub i32 %call2, %3
  store i32 %sub, i32* %_Num, align 4
  %4 = load i32, i32* %_Num, align 4
  %5 = load i32, i32* %_Count.addr, align 4
  %cmp3 = icmp ult i32 %4, %5
  br i1 %cmp3, label %if.then4, label %if.end5

if.then4:                                         ; preds = %if.end
  %6 = load i32, i32* %_Num, align 4
  store i32 %6, i32* %_Count.addr, align 4
  br label %if.end5

if.end5:                                          ; preds = %if.then4, %if.end
  %7 = bitcast %"class.std::basic_string"* %this1 to %"class.std::_String_alloc"*
  %call6 = call x86_thiscallcc dereferenceable(4) i32* @"\01?_Mysize@?$_String_alloc@U?$_String_base_types@DV?$allocator@D@std@@@std@@@std@@QAEAAIXZ"(%"class.std::_String_alloc"* %7) #9
  %8 = load i32, i32* %call6, align 4
  %sub7 = sub i32 -1, %8
  %9 = load i32, i32* %_Count.addr, align 4
  %cmp8 = icmp ule i32 %sub7, %9
  br i1 %cmp8, label %if.then9, label %if.end10

if.then9:                                         ; preds = %if.end5
  call x86_thiscallcc void @"\01?_Xlen@?$basic_string@DU?$char_traits@D@std@@V?$allocator@D@2@@std@@QBEXXZ"(%"class.std::basic_string"* %this1) #13
  unreachable

if.end10:                                         ; preds = %if.end5
  %10 = load i32, i32* %_Count.addr, align 4
  %cmp11 = icmp ult i32 0, %10
  br i1 %cmp11, label %land.lhs.true, label %if.end20

land.lhs.true:                                    ; preds = %if.end10
  %11 = bitcast %"class.std::basic_string"* %this1 to %"class.std::_String_alloc"*
  %call12 = call x86_thiscallcc dereferenceable(4) i32* @"\01?_Mysize@?$_String_alloc@U?$_String_base_types@DV?$allocator@D@std@@@std@@@std@@QAEAAIXZ"(%"class.std::_String_alloc"* %11) #9
  %12 = load i32, i32* %call12, align 4
  %13 = load i32, i32* %_Count.addr, align 4
  %add = add i32 %12, %13
  store i32 %add, i32* %_Num, align 4
  %call13 = call x86_thiscallcc zeroext i1 @"\01?_Grow@?$basic_string@DU?$char_traits@D@std@@V?$allocator@D@2@@std@@QAE_NI_N@Z"(%"class.std::basic_string"* %this1, i32 %add, i1 zeroext false)
  br i1 %call13, label %if.then14, label %if.end20

if.then14:                                        ; preds = %land.lhs.true
  %14 = load i32, i32* %_Count.addr, align 4
  %15 = load %"class.std::basic_string"*, %"class.std::basic_string"** %_Right.addr, align 4
  %16 = bitcast %"class.std::basic_string"* %15 to %"class.std::_String_alloc"*
  %call15 = call x86_thiscallcc i8* @"\01?_Myptr@?$_String_alloc@U?$_String_base_types@DV?$allocator@D@std@@@std@@@std@@QBEPBDXZ"(%"class.std::_String_alloc"* %16)
  %17 = load i32, i32* %_Roff.addr, align 4
  %add.ptr = getelementptr inbounds i8, i8* %call15, i32 %17
  %18 = bitcast %"class.std::basic_string"* %this1 to %"class.std::_String_alloc"*
  %call16 = call x86_thiscallcc i8* @"\01?_Myptr@?$_String_alloc@U?$_String_base_types@DV?$allocator@D@std@@@std@@@std@@QAEPADXZ"(%"class.std::_String_alloc"* %18)
  %19 = bitcast %"class.std::basic_string"* %this1 to %"class.std::_String_alloc"*
  %call17 = call x86_thiscallcc dereferenceable(4) i32* @"\01?_Mysize@?$_String_alloc@U?$_String_base_types@DV?$allocator@D@std@@@std@@@std@@QAEAAIXZ"(%"class.std::_String_alloc"* %19) #9
  %20 = load i32, i32* %call17, align 4
  %add.ptr18 = getelementptr inbounds i8, i8* %call16, i32 %20
  %call19 = call i8* @"\01?copy@?$char_traits@D@std@@SAPADPADPBDI@Z"(i8* %add.ptr18, i8* %add.ptr, i32 %14)
  %21 = load i32, i32* %_Num, align 4
  call x86_thiscallcc void @"\01?_Eos@?$basic_string@DU?$char_traits@D@std@@V?$allocator@D@2@@std@@QAEXI@Z"(%"class.std::basic_string"* %this1, i32 %21)
  br label %if.end20

if.end20:                                         ; preds = %if.then14, %land.lhs.true, %if.end10
  ret %"class.std::basic_string"* %this1
}

; Function Attrs: noreturn nounwind
define linkonce_odr x86_thiscallcc void @"\01?_Xlen@?$basic_string@DU?$char_traits@D@std@@V?$allocator@D@2@@std@@QBEXXZ"(%"class.std::basic_string"* %this) #7 comdat align 2 {
entry:
  %this.addr = alloca %"class.std::basic_string"*, align 4
  store %"class.std::basic_string"* %this, %"class.std::basic_string"** %this.addr, align 4
  %this1 = load %"class.std::basic_string"*, %"class.std::basic_string"** %this.addr, align 4
  call void @"\01?_Xlength_error@std@@YAXPBD@Z"(i8* getelementptr inbounds ([16 x i8], [16 x i8]* @"\01??_C@_0BA@JFNIOLAK@string?5too?5long?$AA@", i32 0, i32 0)) #13
  unreachable

return:                                           ; No predecessors!
  ret void
}

; Function Attrs: nounwind
define linkonce_odr x86_thiscallcc zeroext i1 @"\01?_Grow@?$basic_string@DU?$char_traits@D@std@@V?$allocator@D@2@@std@@QAE_NI_N@Z"(%"class.std::basic_string"* %this, i32 %_Newsize, i1 zeroext %_Trim) #0 comdat align 2 {
entry:
  %_Trim.addr = alloca i8, align 1
  %_Newsize.addr = alloca i32, align 4
  %this.addr = alloca %"class.std::basic_string"*, align 4
  %frombool = zext i1 %_Trim to i8
  store i8 %frombool, i8* %_Trim.addr, align 1
  store i32 %_Newsize, i32* %_Newsize.addr, align 4
  store %"class.std::basic_string"* %this, %"class.std::basic_string"** %this.addr, align 4
  %this1 = load %"class.std::basic_string"*, %"class.std::basic_string"** %this.addr, align 4
  %call = call x86_thiscallcc i32 @"\01?max_size@?$basic_string@DU?$char_traits@D@std@@V?$allocator@D@2@@std@@QBEIXZ"(%"class.std::basic_string"* %this1) #9
  %0 = load i32, i32* %_Newsize.addr, align 4
  %cmp = icmp ult i32 %call, %0
  br i1 %cmp, label %if.then, label %if.end

if.then:                                          ; preds = %entry
  call x86_thiscallcc void @"\01?_Xlen@?$basic_string@DU?$char_traits@D@std@@V?$allocator@D@2@@std@@QBEXXZ"(%"class.std::basic_string"* %this1) #13
  unreachable

if.end:                                           ; preds = %entry
  %1 = bitcast %"class.std::basic_string"* %this1 to %"class.std::_String_alloc"*
  %call2 = call x86_thiscallcc dereferenceable(4) i32* @"\01?_Myres@?$_String_alloc@U?$_String_base_types@DV?$allocator@D@std@@@std@@@std@@QAEAAIXZ"(%"class.std::_String_alloc"* %1) #9
  %2 = load i32, i32* %call2, align 4
  %3 = load i32, i32* %_Newsize.addr, align 4
  %cmp3 = icmp ult i32 %2, %3
  br i1 %cmp3, label %if.then4, label %if.else

if.then4:                                         ; preds = %if.end
  %4 = bitcast %"class.std::basic_string"* %this1 to %"class.std::_String_alloc"*
  %call5 = call x86_thiscallcc dereferenceable(4) i32* @"\01?_Mysize@?$_String_alloc@U?$_String_base_types@DV?$allocator@D@std@@@std@@@std@@QAEAAIXZ"(%"class.std::_String_alloc"* %4) #9
  %5 = load i32, i32* %call5, align 4
  %6 = load i32, i32* %_Newsize.addr, align 4
  call x86_thiscallcc void @"\01?_Copy@?$basic_string@DU?$char_traits@D@std@@V?$allocator@D@2@@std@@QAEXII@Z"(%"class.std::basic_string"* %this1, i32 %6, i32 %5)
  br label %if.end16

if.else:                                          ; preds = %if.end
  %7 = load i8, i8* %_Trim.addr, align 1
  %tobool = trunc i8 %7 to i1
  br i1 %tobool, label %land.lhs.true, label %if.else11

land.lhs.true:                                    ; preds = %if.else
  %8 = load i32, i32* %_Newsize.addr, align 4
  %cmp6 = icmp ult i32 %8, 16
  br i1 %cmp6, label %if.then7, label %if.else11

if.then7:                                         ; preds = %land.lhs.true
  %9 = load i32, i32* %_Newsize.addr, align 4
  %10 = bitcast %"class.std::basic_string"* %this1 to %"class.std::_String_alloc"*
  %call8 = call x86_thiscallcc dereferenceable(4) i32* @"\01?_Mysize@?$_String_alloc@U?$_String_base_types@DV?$allocator@D@std@@@std@@@std@@QAEAAIXZ"(%"class.std::_String_alloc"* %10) #9
  %11 = load i32, i32* %call8, align 4
  %cmp9 = icmp ult i32 %9, %11
  br i1 %cmp9, label %cond.true, label %cond.false

cond.true:                                        ; preds = %if.then7
  %12 = load i32, i32* %_Newsize.addr, align 4
  br label %cond.end

cond.false:                                       ; preds = %if.then7
  %13 = bitcast %"class.std::basic_string"* %this1 to %"class.std::_String_alloc"*
  %call10 = call x86_thiscallcc dereferenceable(4) i32* @"\01?_Mysize@?$_String_alloc@U?$_String_base_types@DV?$allocator@D@std@@@std@@@std@@QAEAAIXZ"(%"class.std::_String_alloc"* %13) #9
  %14 = load i32, i32* %call10, align 4
  br label %cond.end

cond.end:                                         ; preds = %cond.false, %cond.true
  %cond = phi i32 [ %12, %cond.true ], [ %14, %cond.false ]
  call x86_thiscallcc void @"\01?_Tidy@?$basic_string@DU?$char_traits@D@std@@V?$allocator@D@2@@std@@QAEX_NI@Z"(%"class.std::basic_string"* %this1, i1 zeroext true, i32 %cond)
  br label %if.end15

if.else11:                                        ; preds = %land.lhs.true, %if.else
  %15 = load i32, i32* %_Newsize.addr, align 4
  %cmp12 = icmp eq i32 %15, 0
  br i1 %cmp12, label %if.then13, label %if.end14

if.then13:                                        ; preds = %if.else11
  call x86_thiscallcc void @"\01?_Eos@?$basic_string@DU?$char_traits@D@std@@V?$allocator@D@2@@std@@QAEXI@Z"(%"class.std::basic_string"* %this1, i32 0)
  br label %if.end14

if.end14:                                         ; preds = %if.then13, %if.else11
  br label %if.end15

if.end15:                                         ; preds = %if.end14, %cond.end
  br label %if.end16

if.end16:                                         ; preds = %if.end15, %if.then4
  %16 = load i32, i32* %_Newsize.addr, align 4
  %cmp17 = icmp ult i32 0, %16
  ret i1 %cmp17
}

; Function Attrs: nounwind
define linkonce_odr x86_thiscallcc i32 @"\01?size@?$basic_string@DU?$char_traits@D@std@@V?$allocator@D@2@@std@@QBEIXZ"(%"class.std::basic_string"* %this) #0 comdat align 2 {
entry:
  %this.addr = alloca %"class.std::basic_string"*, align 4
  store %"class.std::basic_string"* %this, %"class.std::basic_string"** %this.addr, align 4
  %this1 = load %"class.std::basic_string"*, %"class.std::basic_string"** %this.addr, align 4
  %0 = bitcast %"class.std::basic_string"* %this1 to %"class.std::_String_alloc"*
  %call = call x86_thiscallcc dereferenceable(4) i32* @"\01?_Mysize@?$_String_alloc@U?$_String_base_types@DV?$allocator@D@std@@@std@@@std@@QBEABIXZ"(%"class.std::_String_alloc"* %0) #9
  %1 = load i32, i32* %call, align 4
  ret i32 %1
}

; Function Attrs: noreturn nounwind
define linkonce_odr x86_thiscallcc void @"\01?_Xran@?$basic_string@DU?$char_traits@D@std@@V?$allocator@D@2@@std@@QBEXXZ"(%"class.std::basic_string"* %this) #7 comdat align 2 {
entry:
  %this.addr = alloca %"class.std::basic_string"*, align 4
  store %"class.std::basic_string"* %this, %"class.std::basic_string"** %this.addr, align 4
  %this1 = load %"class.std::basic_string"*, %"class.std::basic_string"** %this.addr, align 4
  call void @"\01?_Xout_of_range@std@@YAXPBD@Z"(i8* getelementptr inbounds ([24 x i8], [24 x i8]* @"\01??_C@_0BI@CFPLBAOH@invalid?5string?5position?$AA@", i32 0, i32 0)) #13
  unreachable

return:                                           ; No predecessors!
  ret void
}

; Function Attrs: nounwind
define linkonce_odr x86_thiscallcc dereferenceable(4) i32* @"\01?_Mysize@?$_String_alloc@U?$_String_base_types@DV?$allocator@D@std@@@std@@@std@@QBEABIXZ"(%"class.std::_String_alloc"* %this) #0 comdat align 2 {
entry:
  %this.addr = alloca %"class.std::_String_alloc"*, align 4
  store %"class.std::_String_alloc"* %this, %"class.std::_String_alloc"** %this.addr, align 4
  %this1 = load %"class.std::_String_alloc"*, %"class.std::_String_alloc"** %this.addr, align 4
  %call = call x86_thiscallcc dereferenceable(24) %"class.std::_String_val"* @"\01?_Get_data@?$_String_alloc@U?$_String_base_types@DV?$allocator@D@std@@@std@@@std@@QBEABV?$_String_val@U?$_Simple_types@D@std@@@2@XZ"(%"class.std::_String_alloc"* %this1) #9
  %_Mysize = getelementptr inbounds %"class.std::_String_val", %"class.std::_String_val"* %call, i32 0, i32 1
  ret i32* %_Mysize
}

; Function Attrs: noreturn
declare void @"\01?_Xout_of_range@std@@YAXPBD@Z"(i8*) #5

; Function Attrs: noreturn
declare void @"\01?_Xlength_error@std@@YAXPBD@Z"(i8*) #5

; Function Attrs: nounwind
define linkonce_odr x86_thiscallcc i32 @"\01?max_size@?$basic_string@DU?$char_traits@D@std@@V?$allocator@D@2@@std@@QBEIXZ"(%"class.std::basic_string"* %this) #0 comdat align 2 {
entry:
  %this.addr = alloca %"class.std::basic_string"*, align 4
  %_Num = alloca i32, align 4
  %agg.tmp = alloca %"struct.std::_Nil", align 4
  store %"class.std::basic_string"* %this, %"class.std::basic_string"** %this.addr, align 4
  %this1 = load %"class.std::basic_string"*, %"class.std::basic_string"** %this.addr, align 4
  %0 = bitcast %"class.std::basic_string"* %this1 to %"class.std::_String_alloc"*
  %call = call x86_thiscallcc dereferenceable(1) %"struct.std::_Wrap_alloc"* @"\01?_Getal@?$_String_alloc@U?$_String_base_types@DV?$allocator@D@std@@@std@@@std@@QBEABU?$_Wrap_alloc@V?$allocator@D@std@@@2@XZ"(%"class.std::_String_alloc"* %0) #9
  %call2 = call x86_thiscallcc i32 @"\01?max_size@?$_Wrap_alloc@V?$allocator@D@std@@@std@@QBEIU_Nil@2@@Z"(%"struct.std::_Wrap_alloc"* %call, %"struct.std::_Nil"* byval align 4 %agg.tmp) #9
  store i32 %call2, i32* %_Num, align 4
  %1 = load i32, i32* %_Num, align 4
  %cmp = icmp ule i32 %1, 1
  br i1 %cmp, label %cond.true, label %cond.false

cond.true:                                        ; preds = %entry
  br label %cond.end

cond.false:                                       ; preds = %entry
  %2 = load i32, i32* %_Num, align 4
  %sub = sub i32 %2, 1
  br label %cond.end

cond.end:                                         ; preds = %cond.false, %cond.true
  %cond = phi i32 [ 1, %cond.true ], [ %sub, %cond.false ]
  ret i32 %cond
}

; Function Attrs: nounwind
define linkonce_odr x86_thiscallcc void @"\01?_Copy@?$basic_string@DU?$char_traits@D@std@@V?$allocator@D@2@@std@@QAEXII@Z"(%"class.std::basic_string"* %this, i32 %_Newsize, i32 %_Oldlen) #0 comdat align 2 {
entry:
  %_Oldlen.addr = alloca i32, align 4
  %_Newsize.addr = alloca i32, align 4
  %this.addr = alloca %"class.std::basic_string"*, align 4
  %_Newres = alloca i32, align 4
  %_Ptr = alloca i8*, align 4
  store i32 %_Oldlen, i32* %_Oldlen.addr, align 4
  store i32 %_Newsize, i32* %_Newsize.addr, align 4
  store %"class.std::basic_string"* %this, %"class.std::basic_string"** %this.addr, align 4
  %this1 = load %"class.std::basic_string"*, %"class.std::basic_string"** %this.addr, align 4
  %0 = load i32, i32* %_Newsize.addr, align 4
  %or = or i32 %0, 15
  store i32 %or, i32* %_Newres, align 4
  %call = call x86_thiscallcc i32 @"\01?max_size@?$basic_string@DU?$char_traits@D@std@@V?$allocator@D@2@@std@@QBEIXZ"(%"class.std::basic_string"* %this1) #9
  %1 = load i32, i32* %_Newres, align 4
  %cmp = icmp ult i32 %call, %1
  br i1 %cmp, label %if.then, label %if.else

if.then:                                          ; preds = %entry
  %2 = load i32, i32* %_Newsize.addr, align 4
  store i32 %2, i32* %_Newres, align 4
  br label %if.end19

if.else:                                          ; preds = %entry
  %3 = bitcast %"class.std::basic_string"* %this1 to %"class.std::_String_alloc"*
  %call2 = call x86_thiscallcc dereferenceable(4) i32* @"\01?_Myres@?$_String_alloc@U?$_String_base_types@DV?$allocator@D@std@@@std@@@std@@QAEAAIXZ"(%"class.std::_String_alloc"* %3) #9
  %4 = load i32, i32* %call2, align 4
  %div = udiv i32 %4, 2
  %5 = load i32, i32* %_Newres, align 4
  %div3 = udiv i32 %5, 3
  %cmp4 = icmp ule i32 %div, %div3
  br i1 %cmp4, label %if.then5, label %if.else6

if.then5:                                         ; preds = %if.else
  br label %if.end18

if.else6:                                         ; preds = %if.else
  %6 = bitcast %"class.std::basic_string"* %this1 to %"class.std::_String_alloc"*
  %call7 = call x86_thiscallcc dereferenceable(4) i32* @"\01?_Myres@?$_String_alloc@U?$_String_base_types@DV?$allocator@D@std@@@std@@@std@@QAEAAIXZ"(%"class.std::_String_alloc"* %6) #9
  %7 = load i32, i32* %call7, align 4
  %call8 = call x86_thiscallcc i32 @"\01?max_size@?$basic_string@DU?$char_traits@D@std@@V?$allocator@D@2@@std@@QBEIXZ"(%"class.std::basic_string"* %this1) #9
  %8 = bitcast %"class.std::basic_string"* %this1 to %"class.std::_String_alloc"*
  %call9 = call x86_thiscallcc dereferenceable(4) i32* @"\01?_Myres@?$_String_alloc@U?$_String_base_types@DV?$allocator@D@std@@@std@@@std@@QAEAAIXZ"(%"class.std::_String_alloc"* %8) #9
  %9 = load i32, i32* %call9, align 4
  %div10 = udiv i32 %9, 2
  %sub = sub i32 %call8, %div10
  %cmp11 = icmp ule i32 %7, %sub
  br i1 %cmp11, label %if.then12, label %if.else16

if.then12:                                        ; preds = %if.else6
  %10 = bitcast %"class.std::basic_string"* %this1 to %"class.std::_String_alloc"*
  %call13 = call x86_thiscallcc dereferenceable(4) i32* @"\01?_Myres@?$_String_alloc@U?$_String_base_types@DV?$allocator@D@std@@@std@@@std@@QAEAAIXZ"(%"class.std::_String_alloc"* %10) #9
  %11 = load i32, i32* %call13, align 4
  %12 = bitcast %"class.std::basic_string"* %this1 to %"class.std::_String_alloc"*
  %call14 = call x86_thiscallcc dereferenceable(4) i32* @"\01?_Myres@?$_String_alloc@U?$_String_base_types@DV?$allocator@D@std@@@std@@@std@@QAEAAIXZ"(%"class.std::_String_alloc"* %12) #9
  %13 = load i32, i32* %call14, align 4
  %div15 = udiv i32 %13, 2
  %add = add i32 %11, %div15
  store i32 %add, i32* %_Newres, align 4
  br label %if.end

if.else16:                                        ; preds = %if.else6
  %call17 = call x86_thiscallcc i32 @"\01?max_size@?$basic_string@DU?$char_traits@D@std@@V?$allocator@D@2@@std@@QBEIXZ"(%"class.std::basic_string"* %this1) #9
  store i32 %call17, i32* %_Newres, align 4
  br label %if.end

if.end:                                           ; preds = %if.else16, %if.then12
  br label %if.end18

if.end18:                                         ; preds = %if.end, %if.then5
  br label %if.end19

if.end19:                                         ; preds = %if.end18, %if.then
  %14 = bitcast %"class.std::basic_string"* %this1 to %"class.std::_String_alloc"*
  %call20 = call x86_thiscallcc dereferenceable(1) %"struct.std::_Wrap_alloc"* @"\01?_Getal@?$_String_alloc@U?$_String_base_types@DV?$allocator@D@std@@@std@@@std@@QAEAAU?$_Wrap_alloc@V?$allocator@D@std@@@2@XZ"(%"class.std::_String_alloc"* %14) #9
  %15 = load i32, i32* %_Newres, align 4
  %add21 = add i32 %15, 1
  %call22 = call x86_thiscallcc i8* @"\01?allocate@?$_Wrap_alloc@V?$allocator@D@std@@@std@@QAEPADI@Z"(%"struct.std::_Wrap_alloc"* %call20, i32 %add21)
  store i8* %call22, i8** %_Ptr, align 4
  %16 = load i32, i32* %_Oldlen.addr, align 4
  %cmp23 = icmp ult i32 0, %16
  br i1 %cmp23, label %if.then24, label %if.end27

if.then24:                                        ; preds = %if.end19
  %17 = load i32, i32* %_Oldlen.addr, align 4
  %18 = bitcast %"class.std::basic_string"* %this1 to %"class.std::_String_alloc"*
  %call25 = call x86_thiscallcc i8* @"\01?_Myptr@?$_String_alloc@U?$_String_base_types@DV?$allocator@D@std@@@std@@@std@@QAEPADXZ"(%"class.std::_String_alloc"* %18)
  %19 = load i8*, i8** %_Ptr, align 4
  %call26 = call i8* @"\01?copy@?$char_traits@D@std@@SAPADPADPBDI@Z"(i8* %19, i8* %call25, i32 %17)
  br label %if.end27

if.end27:                                         ; preds = %if.then24, %if.end19
  call x86_thiscallcc void @"\01?_Tidy@?$basic_string@DU?$char_traits@D@std@@V?$allocator@D@2@@std@@QAEX_NI@Z"(%"class.std::basic_string"* %this1, i1 zeroext true, i32 0)
  %20 = bitcast %"class.std::basic_string"* %this1 to %"class.std::_String_alloc"*
  %call28 = call x86_thiscallcc dereferenceable(1) %"struct.std::_Wrap_alloc"* @"\01?_Getal@?$_String_alloc@U?$_String_base_types@DV?$allocator@D@std@@@std@@@std@@QAEAAU?$_Wrap_alloc@V?$allocator@D@std@@@2@XZ"(%"class.std::_String_alloc"* %20) #9
  %21 = bitcast %"class.std::basic_string"* %this1 to %"class.std::_String_alloc"*
  %call29 = call x86_thiscallcc dereferenceable(16) %"union.std::_String_val<std::_Simple_types<char> >::_Bxty"* @"\01?_Bx@?$_String_alloc@U?$_String_base_types@DV?$allocator@D@std@@@std@@@std@@QAEAAT_Bxty@?$_String_val@U?$_Simple_types@D@std@@@2@XZ"(%"class.std::_String_alloc"* %21) #9
  %_Ptr30 = bitcast %"union.std::_String_val<std::_Simple_types<char> >::_Bxty"* %call29 to i8**
  call x86_thiscallcc void @"\01??$construct@PADAAPAD@?$_Wrap_alloc@V?$allocator@D@std@@@std@@QAEXPAPADAAPAD@Z"(%"struct.std::_Wrap_alloc"* %call28, i8** %_Ptr30, i8** dereferenceable(4) %_Ptr)
  %22 = load i32, i32* %_Newres, align 4
  %23 = bitcast %"class.std::basic_string"* %this1 to %"class.std::_String_alloc"*
  %call31 = call x86_thiscallcc dereferenceable(4) i32* @"\01?_Myres@?$_String_alloc@U?$_String_base_types@DV?$allocator@D@std@@@std@@@std@@QAEAAIXZ"(%"class.std::_String_alloc"* %23) #9
  store i32 %22, i32* %call31, align 4
  %24 = load i32, i32* %_Oldlen.addr, align 4
  call x86_thiscallcc void @"\01?_Eos@?$basic_string@DU?$char_traits@D@std@@V?$allocator@D@2@@std@@QAEXI@Z"(%"class.std::basic_string"* %this1, i32 %24)
  ret void
}

; Function Attrs: nounwind
define linkonce_odr x86_thiscallcc dereferenceable(1) %"struct.std::_Wrap_alloc"* @"\01?_Getal@?$_String_alloc@U?$_String_base_types@DV?$allocator@D@std@@@std@@@std@@QBEABU?$_Wrap_alloc@V?$allocator@D@std@@@2@XZ"(%"class.std::_String_alloc"* %this) #0 comdat align 2 {
entry:
  %this.addr = alloca %"class.std::_String_alloc"*, align 4
  store %"class.std::_String_alloc"* %this, %"class.std::_String_alloc"** %this.addr, align 4
  %this1 = load %"class.std::_String_alloc"*, %"class.std::_String_alloc"** %this.addr, align 4
  %_Mypair = getelementptr inbounds %"class.std::_String_alloc", %"class.std::_String_alloc"* %this1, i32 0, i32 0
  %call = call x86_thiscallcc dereferenceable(1) %"struct.std::_Wrap_alloc"* @"\01?_Get_first@?$_Compressed_pair@U?$_Wrap_alloc@V?$allocator@D@std@@@std@@V?$_String_val@U?$_Simple_types@D@std@@@2@$00@std@@QBEABU?$_Wrap_alloc@V?$allocator@D@std@@@2@XZ"(%"class.std::_Compressed_pair"* %_Mypair) #9
  ret %"struct.std::_Wrap_alloc"* %call
}

; Function Attrs: nounwind
